 iconv

 Timestamp is 586e7b7d (Thu Jan  5 22:29:41 2017)

 Preferred load address is 0000000180000000

 Start         Length     Name                   Class
 0001:00000000 00000020H .text$di                CODE
 0001:00000020 00021360H .text$mn                CODE
 0001:00021380 00000020H .text$mn$00             CODE
 0001:000213a0 00000260H .text$x                 CODE
 0001:00021600 00000003H .text$yd                CODE
 0002:00000000 00000248H .idata$5                DATA
 0002:00000248 00000010H .00cfg                  DATA
 0002:00000258 00000008H .CRT$XCA                DATA
 0002:00000260 00000010H .CRT$XCU                DATA
 0002:00000270 00000008H .CRT$XCZ                DATA
 0002:00000278 00000008H .CRT$XIA                DATA
 0002:00000280 00000018H .CRT$XIC                DATA
 0002:00000298 00000008H .CRT$XIZ                DATA
 0002:000002a0 00000008H .CRT$XPA                DATA
 0002:000002a8 00000010H .CRT$XPX                DATA
 0002:000002b8 00000008H .CRT$XPXA               DATA
 0002:000002c0 00000008H .CRT$XPZ                DATA
 0002:000002c8 00000008H .CRT$XTA                DATA
 0002:000002d0 00000010H .CRT$XTZ                DATA
 0002:000002e0 000e3ce8H .rdata                  DATA
 0002:000e3fc8 000001f4H .rdata$r                DATA
 0002:000e41bc 000003f4H .rdata$zzzdbg           DATA
 0002:000e45b0 00000008H .rtc$IAA                DATA
 0002:000e45b8 00000008H .rtc$IZZ                DATA
 0002:000e45c0 00000008H .rtc$TAA                DATA
 0002:000e45c8 00000008H .rtc$TZZ                DATA
 0002:000e45d0 00001120H .xdata                  DATA
 0002:000e56f0 000000ecH .xdata$x                DATA
 0002:000e57dc 00000020H .didat$2                DATA
 0002:000e57fc 00000024H .didat$3                DATA
 0002:000e5820 00000120H .didat$4                DATA
 0002:000e5940 00000930H .didat$6                DATA
 0002:000e6270 00000120H .didat$7                DATA
 0002:000e6390 00000054H .edata                  DATA
 0002:000e63e4 00000014H .idata$2                DATA
 0002:000e63f8 00000018H .idata$3                DATA
 0002:000e6410 00000248H .idata$4                DATA
 0002:000e6658 0000054eH .idata$6                DATA
 0003:00000000 00000930H .data                   DATA
 0003:00000930 000000a0H .data$r                 DATA
 0003:000009d0 00000120H .didat$5                DATA
 0003:00000af0 000011e8H .bss                    DATA
 0004:00000000 000015ccH .pdata                  DATA
 0005:00000000 00000080H .gfids$x                DATA
 0005:00000080 00000030H .gfids$y                DATA
 0006:00000000 00000060H .rsrc$01                DATA
 0006:00000060 00000180H .rsrc$02                DATA

  Address         Publics by Value              Rva+Base               Lib:Object

 0000:00000000       __guard_iat_count          0000000000000000     <absolute>
 0000:00000000       __dynamic_value_reloc_table 0000000000000000     <absolute>
 0000:00000000       __guard_iat_table          0000000000000000     <absolute>
 0000:00000000       __guard_longjmp_table      0000000000000000     <absolute>
 0000:00000000       __guard_longjmp_count      0000000000000000     <absolute>
 0000:00000000       __guard_fids_count         0000000000000000     <absolute>
 0000:00000000       ___safe_se_handler_table   0000000000000000     <absolute>
 0000:00000000       ___safe_se_handler_count   0000000000000000     <absolute>
 0000:00000000       __guard_fids_table         0000000000000000     <absolute>
 0000:00000100       __guard_flags              0000000000000100     <absolute>
 0000:00000000       __ImageBase                0000000180000000     <linker-defined>
 0001:000000d0       ?New@?$Factory@VFunctionTemplate@v8@@@imp@Nan@@SA?AV?$Local@VFunctionTemplate@v8@@@v8@@P6AXAEBV?$FunctionCallbackInfo@VValue@v8@@@3@@ZV?$Local@VValue@v8@@@5@V?$Local@VSignature@v8@@@5@@Z 00000001800010d0 f i binding.obj
 0001:00000a20       ??$invokeparameter@$00@?$WeakCallbackInfo@UIconv@?A0x9d7288fc@@@Nan@@CAXAEBV?$WeakCallbackInfo@V?$WeakCallbackInfo@UIconv@?A0x9d7288fc@@@Nan@@@v8@@@Z 0000000180001a20 f i binding.obj
 0001:00000a70       ??$invokeparameter@$0A@@?$WeakCallbackInfo@UIconv@?A0x9d7288fc@@@Nan@@CAXAEBV?$WeakCallbackInfo@V?$WeakCallbackInfo@UIconv@?A0x9d7288fc@@@Nan@@@v8@@@Z 0000000180001a70 f i binding.obj
 0001:000164a0       libiconv_open              00000001800174a0 f   iconv.obj
 0001:0001697c       __imp_load_?Value@External@v8@@QEBAPEAXXZ 000000018001797c f   node:node.exe
 0001:00016988       __tailMerge_node_exe       0000000180017988 f i node:node.exe
 0001:00016a01       __imp_load_?New@External@v8@@SA?AV?$Local@VExternal@v8@@@2@PEAVIsolate@2@PEAX@Z 0000000180017a01 f   node:node.exe
 0001:00016a0d       __imp_load_?NewFromUnsigned@Integer@v8@@SA?AV?$Local@VInteger@v8@@@2@PEAVIsolate@2@I@Z 0000000180017a0d f   node:node.exe
 0001:00016a19       __imp_load_?New@Integer@v8@@SA?AV?$Local@VInteger@v8@@@2@PEAVIsolate@2@H@Z 0000000180017a19 f   node:node.exe
 0001:00016a25       __imp_load_?GetCurrentContext@Isolate@v8@@QEAA?AV?$Local@VContext@v8@@@2@XZ 0000000180017a25 f   node:node.exe
 0001:00016a31       __imp_load_?GetCurrent@Isolate@v8@@SAPEAV12@XZ 0000000180017a31 f   node:node.exe
 0001:00016a3d       __imp_load_?CreateHandle@HandleScope@v8@@KAPEAPEAVObject@internal@2@PEAVIsolate@42@PEAV342@@Z 0000000180017a3d f   node:node.exe
 0001:00016a49       __imp_load_?CreateHandle@HandleScope@v8@@CAPEAPEAVObject@internal@2@PEAVHeapObject@42@PEAV342@@Z 0000000180017a49 f   node:node.exe
 0001:00016a55       __imp_load_??1HandleScope@v8@@QEAA@XZ 0000000180017a55 f   node:node.exe
 0001:00016a61       __imp_load_?GetFunction@FunctionTemplate@v8@@QEAA?AV?$Local@VFunction@v8@@@2@XZ 0000000180017a61 f   node:node.exe
 0001:00016a6d       __imp_load_?New@FunctionTemplate@v8@@SA?AV?$Local@VFunctionTemplate@v8@@@2@PEAVIsolate@2@P6AXAEBV?$FunctionCallbackInfo@VValue@v8@@@2@@ZV?$Local@VValue@v8@@@2@V?$Local@VSignature@v8@@@2@H@Z 0000000180017a6d f   node:node.exe
 0001:00016a79       __imp_load_?ToLocalEmpty@V8@v8@@CAXXZ 0000000180017a79 f   node:node.exe
 0001:00016a85       __imp_load_?MakeWeak@V8@v8@@CAXPEAPEAVObject@internal@2@PEAXP6AXAEBV?$WeakCallbackInfo@X@2@@ZW4WeakCallbackType@2@@Z 0000000180017a85 f   node:node.exe
 0001:00016a91       __imp_load_?DisposeGlobal@V8@v8@@CAXPEAPEAVObject@internal@2@@Z 0000000180017a91 f   node:node.exe
 0001:00016a9d       __imp_load_?GlobalizeReference@V8@v8@@CAPEAPEAVObject@internal@2@PEAVIsolate@42@PEAPEAV342@@Z 0000000180017a9d f   node:node.exe
 0001:00016aa9       __imp_load_?Uint32Value@Value@v8@@QEBAIXZ 0000000180017aa9 f   node:node.exe
 0001:00016ab5       __imp_load_?BooleanValue@Value@v8@@QEBA_NXZ 0000000180017ab5 f   node:node.exe
 0001:00016ac1       __imp_load_?ToInteger@Value@v8@@QEBA?AV?$MaybeLocal@VInteger@v8@@@2@V?$Local@VContext@v8@@@2@@Z 0000000180017ac1 f   node:node.exe
 0001:00016acd       __imp_load_?Escape@EscapableHandleScope@v8@@AEAAPEAPEAVObject@internal@2@PEAPEAV342@@Z 0000000180017acd f   node:node.exe
 0001:00016ad9       __imp_load_??0EscapableHandleScope@v8@@QEAA@PEAVIsolate@1@@Z 0000000180017ad9 f   node:node.exe
 0001:00016ae5       __imp_load_??1Utf8Value@String@v8@@QEAA@XZ 0000000180017ae5 f   node:node.exe
 0001:00016af1       __imp_load_??0Utf8Value@String@v8@@QEAA@V?$Local@VValue@v8@@@2@@Z 0000000180017af1 f   node:node.exe
 0001:00016afd       __imp_load_?NewFromUtf8@String@v8@@SA?AV?$MaybeLocal@VString@v8@@@2@PEAVIsolate@2@PEBDW4NewStringType@2@H@Z 0000000180017afd f   node:node.exe
 0001:00016b09       __imp_load_?SlowGetAlignedPointerFromInternalField@Object@v8@@AEAAPEAXH@Z 0000000180017b09 f   node:node.exe
 0001:00016b15       __imp_load_?SlowGetInternalField@Object@v8@@AEAA?AV?$Local@VValue@v8@@@2@H@Z 0000000180017b15 f   node:node.exe
 0001:00016b21       __imp_load_?SetAlignedPointerInInternalField@Object@v8@@QEAAXHPEAX@Z 0000000180017b21 f   node:node.exe
 0001:00016b2d       __imp_load_?SetInternalField@Object@v8@@QEAAXHV?$Local@VValue@v8@@@2@@Z 0000000180017b2d f   node:node.exe
 0001:00016b39       __imp_load_?Set@Object@v8@@QEAA_NV?$Local@VValue@v8@@@2@0@Z 0000000180017b39 f   node:node.exe
 0001:00016b45       __imp_load_?Set@Object@v8@@QEAA_NIV?$Local@VValue@v8@@@2@@Z 0000000180017b45 f   node:node.exe
 0001:00016b51       __imp_load_?SetInternalFieldCount@ObjectTemplate@v8@@QEAAXH@Z 0000000180017b51 f   node:node.exe
 0001:00016b5d       __imp_load_?NewInstance@ObjectTemplate@v8@@QEAA?AV?$Local@VObject@v8@@@2@XZ 0000000180017b5d f   node:node.exe
 0001:00016b69       __imp_load_?NewInstance@ObjectTemplate@v8@@QEAA?AV?$MaybeLocal@VObject@v8@@@2@V?$Local@VContext@v8@@@2@@Z 0000000180017b69 f   node:node.exe
 0001:00016b75       __imp_load_?New@ObjectTemplate@v8@@SA?AV?$Local@VObjectTemplate@v8@@@2@PEAVIsolate@2@V?$Local@VFunctionTemplate@v8@@@2@@Z 0000000180017b75 f   node:node.exe
 0001:00016b81       __imp_load_node_module_register 0000000180017b81 f   node:node.exe
 0001:00016b8d       __imp_load_?Data@Buffer@node@@YAPEADV?$Local@VObject@v8@@@v8@@@Z 0000000180017b8d f   node:node.exe
 0001:00016bb0       __security_check_cookie    0000000180017bb0 f   LIBCMT:_amdsecgs_.obj
 0001:00016bd4       ??2@YAPEAX_K@Z             0000000180017bd4 f   LIBCMT:new_scalar.obj
 0001:00016c10       __scrt_acquire_startup_lock 0000000180017c10 f   LIBCMT:utility.obj
 0001:00016c4c       __scrt_dllmain_after_initialize_c 0000000180017c4c f   LIBCMT:utility.obj
 0001:00016c80       __scrt_dllmain_before_initialize_c 0000000180017c80 f   LIBCMT:utility.obj
 0001:00016c98       __scrt_dllmain_crt_thread_attach 0000000180017c98 f   LIBCMT:utility.obj
 0001:00016cc0       __scrt_dllmain_crt_thread_detach 0000000180017cc0 f   LIBCMT:utility.obj
 0001:00016cd8       __scrt_dllmain_exception_filter 0000000180017cd8 f   LIBCMT:utility.obj
 0001:00016d3c       __scrt_dllmain_uninitialize_c 0000000180017d3c f   LIBCMT:utility.obj
 0001:00016d6c       __scrt_dllmain_uninitialize_critical 0000000180017d6c f   LIBCMT:utility.obj
 0001:00016d80       __scrt_initialize_crt      0000000180017d80 f   LIBCMT:utility.obj
 0001:00016dcc       __scrt_initialize_onexit_tables 0000000180017dcc f   LIBCMT:utility.obj
 0001:00016e98       __scrt_is_nonwritable_in_current_image 0000000180017e98 f   LIBCMT:utility.obj
 0001:00016f34       __scrt_release_startup_lock 0000000180017f34 f   LIBCMT:utility.obj
 0001:00016f58       __scrt_uninitialize_crt    0000000180017f58 f   LIBCMT:utility.obj
 0001:00016f84       _onexit                    0000000180017f84 f   LIBCMT:utility.obj
 0001:00016fd4       atexit                     0000000180017fd4 f   LIBCMT:utility.obj
 0001:00016fec       ??3@YAXPEAX_K@Z            0000000180017fec f   LIBCMT:delete_scalar_size.obj
 0001:00017340       _DllMainCRTStartup         0000000180018340 f   LIBCMT:dll_dllmain.obj
 0001:00017380       __raise_securityfailure    0000000180018380 f   LIBCMT:gs_report.obj
 0001:000173b4       __report_gsfailure         00000001800183b4 f   LIBCMT:gs_report.obj
 0001:00017488       __report_rangecheckfailure 0000000180018488 f   LIBCMT:gs_report.obj
 0001:0001749c       __report_securityfailure   000000018001849c f   LIBCMT:gs_report.obj
 0001:0001761c       ??0bad_alloc@std@@QEAA@AEBV01@@Z 000000018001861c f i LIBCMT:throw_bad_alloc.obj
 0001:0001765c       ??0bad_alloc@std@@QEAA@XZ  000000018001865c f i LIBCMT:throw_bad_alloc.obj
 0001:0001767c       ??0bad_array_new_length@std@@QEAA@AEBV01@@Z 000000018001867c f i LIBCMT:throw_bad_alloc.obj
 0001:000176bc       ??0bad_array_new_length@std@@QEAA@XZ 00000001800186bc f i LIBCMT:throw_bad_alloc.obj
 0001:000176dc       ??0exception@std@@QEAA@AEBV01@@Z 00000001800186dc f i LIBCMT:throw_bad_alloc.obj
 0001:00017714       ??1bad_alloc@std@@UEAA@XZ  0000000180018714 f i LIBCMT:throw_bad_alloc.obj
 0001:00017714       ??1bad_array_new_length@std@@UEAA@XZ 0000000180018714 f i LIBCMT:throw_bad_alloc.obj
 0001:00017728       ??_Gbad_alloc@std@@UEAAPEAXI@Z 0000000180018728 f i LIBCMT:throw_bad_alloc.obj
 0001:00017728       ??_Ebad_array_new_length@std@@UEAAPEAXI@Z 0000000180018728 f i LIBCMT:throw_bad_alloc.obj
 0001:00017728       ??_Ebad_alloc@std@@UEAAPEAXI@Z 0000000180018728 f i LIBCMT:throw_bad_alloc.obj
 0001:00017728       ??_Eexception@std@@UEAAPEAXI@Z 0000000180018728 f i LIBCMT:throw_bad_alloc.obj
 0001:00017728       ??_Gbad_array_new_length@std@@UEAAPEAXI@Z 0000000180018728 f i LIBCMT:throw_bad_alloc.obj
 0001:00017728       ??_Gexception@std@@UEAAPEAXI@Z 0000000180018728 f i LIBCMT:throw_bad_alloc.obj
 0001:0001776c       ?__scrt_throw_std_bad_alloc@@YAXXZ 000000018001876c f   LIBCMT:throw_bad_alloc.obj
 0001:0001778c       ?__scrt_throw_std_bad_array_new_length@@YAXXZ 000000018001878c f   LIBCMT:throw_bad_alloc.obj
 0001:000177ac       ?what@exception@std@@UEBAPEBDXZ 00000001800187ac f i LIBCMT:throw_bad_alloc.obj
 0001:000177c0       __isa_available_init       00000001800187c0 f   LIBCMT:_cpu_disp_.obj
 0001:00017988       __scrt_is_ucrt_dll_in_use  0000000180018988 f   LIBCMT:ucrt_detection.obj
 0001:00017994       __crt_debugger_hook        0000000180018994 f   LIBCMT:utility_desktop.obj
 0001:0001799c       __scrt_fastfail            000000018001899c f   LIBCMT:utility_desktop.obj
 0001:00017ae4       _guard_check_icall         0000000180018ae4 f i LIBCMT:checkcfg.obj
 0001:00017aec       ??3@YAXPEAX@Z              0000000180018aec f   LIBCMT:delete_scalar.obj
 0001:00017af4       __security_init_cookie     0000000180018af4 f   LIBCMT:gs_support.obj
 0001:00017ba0       _get_startup_argv_mode     0000000180018ba0 f   LIBCMT:argv_mode.obj
 0001:00017ba0       DllMain                    0000000180018ba0 f   LIBCMT:dll_dllmain_stub.obj
 0001:00017ba8       ?__scrt_initialize_type_info@@YAXXZ 0000000180018ba8 f   LIBCMT:tncleanup.obj
 0001:00017bb8       ?__scrt_uninitialize_type_info@@YAXXZ 0000000180018bb8 f   LIBCMT:tncleanup.obj
 0001:00017bc4       __local_stdio_printf_options 0000000180018bc4 f i LIBCMT:default_local_stdio_options.obj
 0001:00017bcc       __local_stdio_scanf_options 0000000180018bcc f i LIBCMT:default_local_stdio_options.obj
 0001:00017bd4       __scrt_initialize_default_local_stdio_options 0000000180018bd4 f   LIBCMT:default_local_stdio_options.obj
 0001:00017bf0       __scrt_get_dyn_tls_init_callback 0000000180018bf0 f   LIBCMT:dyn_tls_init.obj
 0001:00017bf8       _RTC_Initialize            0000000180018bf8 f   LIBCMT:_initsect_.obj
 0001:00017c44       _RTC_Terminate             0000000180018c44 f   LIBCMT:_initsect_.obj
 0001:00017c90       ??_Etype_info@@UEAAPEAXI@Z 0000000180018c90 f i LIBCMT:std_type_info_static.obj
 0001:00017c90       ??_Gtype_info@@UEAAPEAXI@Z 0000000180018c90 f i LIBCMT:std_type_info_static.obj
 0001:00017cc0       __vcrt_initialize          0000000180018cc0 f   libvcruntime:initialization.obj
 0001:00017cf4       __vcrt_thread_attach       0000000180018cf4 f   libvcruntime:initialization.obj
 0001:00017d08       __vcrt_thread_detach       0000000180018d08 f   libvcruntime:initialization.obj
 0001:00017d1c       __vcrt_uninitialize        0000000180018d1c f   libvcruntime:initialization.obj
 0001:00017d3c       __vcrt_uninitialize_critical 0000000180018d3c f   libvcruntime:initialization.obj
 0001:00017d4c       __C_specific_handler       0000000180018d4c f   libvcruntime:_chandler_.obj
 0001:00017f48       __std_exception_copy       0000000180018f48 f   libvcruntime:std_exception.obj
 0001:00017fd8       __std_exception_destroy    0000000180018fd8 f   libvcruntime:std_exception.obj
 0001:00018000       _CxxThrowException         0000000180019000 f   libvcruntime:throw.obj
 0001:000180f0       memset                     00000001800190f0 f   libvcruntime:memset.obj
 0001:00018290       __std_type_info_destroy_list 0000000180019290 f   libvcruntime:std_type_info.obj
 0001:000182bc       __vcrt_freefls             00000001800192bc f   libvcruntime:per_thread_data.obj
 0001:000182dc       __vcrt_freeptd             00000001800192dc f   libvcruntime:per_thread_data.obj
 0001:0001832c       __vcrt_getptd_noexit       000000018001932c f   libvcruntime:per_thread_data.obj
 0001:000183e4       __vcrt_initialize_ptd      00000001800193e4 f   libvcruntime:per_thread_data.obj
 0001:00018424       __vcrt_uninitialize_ptd    0000000180019424 f   libvcruntime:per_thread_data.obj
 0001:00018448       __vcrt_initialize_locks    0000000180019448 f   libvcruntime:locks.obj
 0001:00018490       __vcrt_uninitialize_locks  0000000180019490 f   libvcruntime:locks.obj
 0001:00018690       __vcrt_FlsAlloc            0000000180019690 f   libvcruntime:winapi_downlevel.obj
 0001:000186e4       __vcrt_FlsFree             00000001800196e4 f   libvcruntime:winapi_downlevel.obj
 0001:00018738       __vcrt_FlsGetValue         0000000180019738 f   libvcruntime:winapi_downlevel.obj
 0001:0001878c       __vcrt_FlsSetValue         000000018001978c f   libvcruntime:winapi_downlevel.obj
 0001:000187f4       __vcrt_InitializeCriticalSectionEx 00000001800197f4 f   libvcruntime:winapi_downlevel.obj
 0001:0001886c       __vcrt_initialize_winapi_thunks 000000018001986c f   libvcruntime:winapi_downlevel.obj
 0001:000188b8       __vcrt_uninitialize_winapi_thunks 00000001800198b8 f   libvcruntime:winapi_downlevel.obj
 0001:000188f8       __vcrt_initialize_pure_virtual_call_handler 00000001800198f8 f   libvcruntime:purevirt_data.obj
 0001:00018930       _local_unwind              0000000180019930 f   libvcruntime:_jmpuwind_.obj
 0001:00018960       _NLG_Notify                0000000180019960 f   libvcruntime:_jmpuwind_.obj
 0001:00018980       __NLG_Dispatch2            0000000180019980 f   libvcruntime:_jmpuwind_.obj
 0001:00018990       __NLG_Return2              0000000180019990 f   libvcruntime:_jmpuwind_.obj
 0001:00018994       _guard_check_icall_nop     0000000180019994 f   LIBCMT:guard_support.obj
 0001:00018994       __except_validate_context_record 0000000180019994 f   libvcruntime:jbcxrval.obj
 0001:00018998       __acrt_errno_from_os_error 0000000180019998 f   libucrt:errno.obj
 0001:000189e0       __acrt_errno_map_os_error  00000001800199e0 f   libucrt:errno.obj
 0001:00018a30       __doserrno                 0000000180019a30 f   libucrt:errno.obj
 0001:00018a50       _errno                     0000000180019a50 f   libucrt:errno.obj
 0001:00018a70       abort                      0000000180019a70 f   libucrt:abort.obj
 0001:00018ba0       qsort                      0000000180019ba0 f   libucrt:qsort.obj
 0001:00018ed4       free                       0000000180019ed4 f   libucrt:free.obj
 0001:00018edc       malloc                     0000000180019edc f   libucrt:malloc.obj
 0001:00018ee4       ??0_LocaleUpdate@@QEAA@QEAU__crt_locale_pointers@@@Z 0000000180019ee4 f i libucrt:stricmp.obj
 0001:00018f74       __ascii_stricmp            0000000180019f74 f   libucrt:stricmp.obj
 0001:00018fb0       _stricmp                   0000000180019fb0 f   libucrt:stricmp.obj
 0001:00018ff8       _stricmp_l                 0000000180019ff8 f   libucrt:stricmp.obj
 0001:000190ac       __acrt_initialize_new_handler 000000018001a0ac f   libucrt:new_handler.obj
 0001:000190b4       _callnewh                  000000018001a0b4 f   libucrt:new_handler.obj
 0001:000190f4       _query_new_handler         000000018001a0f4 f   libucrt:new_handler.obj
 0001:00019128       _seh_filter_dll            000000018001a128 f   libucrt:exception_filter.obj
 0001:0001913c       _seh_filter_exe            000000018001a13c f   libucrt:exception_filter.obj
 0001:000194fc       __acrt_initialize_thread_local_exit_callback 000000018001a4fc f   libucrt:exit.obj
 0001:00019504       _cexit                     000000018001a504 f   libucrt:exit.obj
 0001:00019514       _exit                      000000018001a514 f   libucrt:exit.obj
 0001:00019520       _is_c_termination_complete 000000018001a520 f   libucrt:exit.obj
 0001:000196e4       __acrt_allocate_buffer_for_argv 000000018001a6e4 f   libucrt:argv_parsing.obj
 0001:00019748       _configure_narrow_argv     000000018001a748 f   libucrt:argv_parsing.obj
 0001:00019aa4       __dcrt_uninitialize_environments_nolock 000000018001aaa4 f   libucrt:environment_initialization.obj
 0001:00019adc       _initialize_narrow_environment 000000018001aadc f   libucrt:environment_initialization.obj
 0001:00019ae4       ??$?RV<lambda_b8c45f8f788dd370798f47cfe8ac3a86>@@AEAV<lambda_4e60a939b0d047cfe11ddc22648dfba9>@@V<lambda_332c3edc96d0294ec56c57d38c1cdfd5>@@@?$__crt_seh_guarded_call@H@@QEAAH$$QEAV<lambda_b8c45f8f788dd370798f47cfe8ac3a86>@@AEAV<lambda_4e60a939b0d047cfe11ddc22648dfba9>@@$$QEAV<lambda_332c3edc96d0294ec56c57d38c1cdfd5>@@@Z 000000018001aae4 f i libucrt:onexit.obj
 0001:00019b20       ??$?RV<lambda_e24bbb7b643b32fcea6fa61b31d4c984>@@AEAV<lambda_275893d493268fdec8709772e3fcec0e>@@V<lambda_9d71df4d7cf3f480f8d633942495c3b0>@@@?$__crt_seh_guarded_call@H@@QEAAH$$QEAV<lambda_e24bbb7b643b32fcea6fa61b31d4c984>@@AEAV<lambda_275893d493268fdec8709772e3fcec0e>@@$$QEAV<lambda_9d71df4d7cf3f480f8d633942495c3b0>@@@Z 000000018001ab20 f i libucrt:onexit.obj
 0001:00019e9c       _crt_atexit                000000018001ae9c f   libucrt:onexit.obj
 0001:00019eac       _execute_onexit_table      000000018001aeac f   libucrt:onexit.obj
 0001:00019ee8       _initialize_onexit_table   000000018001aee8 f   libucrt:onexit.obj
 0001:00019f28       _register_onexit_function  000000018001af28 f   libucrt:onexit.obj
 0001:0001a0a4       __acrt_uninitialize_command_line 000000018001b0a4 f   libucrt:argv_data.obj
 0001:0001a0a8       __acrt_initialize          000000018001b0a8 f   libucrt:initialization.obj
 0001:0001a0bc       __acrt_thread_attach       000000018001b0bc f   libucrt:initialization.obj
 0001:0001a0d0       __acrt_thread_detach       000000018001b0d0 f   libucrt:initialization.obj
 0001:0001a0e0       __acrt_uninitialize        000000018001b0e0 f   libucrt:initialization.obj
 0001:0001a0f4       __acrt_uninitialize_critical 000000018001b0f4 f   libucrt:initialization.obj
 0001:0001a104       _initterm                  000000018001b104 f   libucrt:initterm.obj
 0001:0001a17c       _initterm_e                000000018001b17c f   libucrt:initterm.obj
 0001:0001a1c8       terminate                  000000018001b1c8 f   libucrt:terminate.obj
 0001:0001a1f0       strcpy_s                   000000018001b1f0 f   libucrt:strcpy_s.obj
 0001:0001a250       _free_base                 000000018001b250 f   libucrt:free_base.obj
 0001:0001a290       _malloc_base               000000018001b290 f   libucrt:malloc_base.obj
 0001:0001a2f0       _calloc_base               000000018001b2f0 f   libucrt:calloc_base.obj
 0001:0001a368       __acrt_call_reportfault    000000018001b368 f   libucrt:invalid_parameter.obj
 0001:0001a4c4       __acrt_initialize_invalid_parameter_handler 000000018001b4c4 f   libucrt:invalid_parameter.obj
 0001:0001a4cc       _invalid_parameter         000000018001b4cc f   libucrt:invalid_parameter.obj
 0001:0001a574       _invalid_parameter_noinfo  000000018001b574 f   libucrt:invalid_parameter.obj
 0001:0001a594       _invoke_watson             000000018001b594 f   libucrt:invalid_parameter.obj
 0001:0001a5dc       ??$?RV<lambda_46352004c1216016012b18bd6f87e700>@@AEAV<lambda_3bd07e1a1191394380780325891bf33f>@@V<lambda_334532d3f185bcaa59b5be82d7d22bff>@@@?$__crt_seh_guarded_call@X@@QEAAX$$QEAV<lambda_46352004c1216016012b18bd6f87e700>@@AEAV<lambda_3bd07e1a1191394380780325891bf33f>@@$$QEAV<lambda_334532d3f185bcaa59b5be82d7d22bff>@@@Z 000000018001b5dc f i libucrt:per_thread_data.obj
 0001:0001a63c       ??$?RV<lambda_5e887d1dcbef67a5eb4283622ba103bf>@@AEAV<lambda_4466841279450cc726390878d4a41900>@@V<lambda_341c25c0346d94847f1f3c463c57e077>@@@?$__crt_seh_guarded_call@X@@QEAAX$$QEAV<lambda_5e887d1dcbef67a5eb4283622ba103bf>@@AEAV<lambda_4466841279450cc726390878d4a41900>@@$$QEAV<lambda_341c25c0346d94847f1f3c463c57e077>@@@Z 000000018001b63c f i libucrt:per_thread_data.obj
 0001:0001a684       ??$?RV<lambda_72d1df2b273a38828b1ce30cbf4cdab5>@@AEAV<lambda_876a65b173b8412d3a47c70a915b0cf4>@@V<lambda_41932305e351933ebe8f8be3ed8bb5dc>@@@?$__crt_seh_guarded_call@X@@QEAAX$$QEAV<lambda_72d1df2b273a38828b1ce30cbf4cdab5>@@AEAV<lambda_876a65b173b8412d3a47c70a915b0cf4>@@$$QEAV<lambda_41932305e351933ebe8f8be3ed8bb5dc>@@@Z 000000018001b684 f i libucrt:per_thread_data.obj
 0001:0001a6c4       ??$?RV<lambda_fb3a7dec4e47f37f22dae91bb15c9095>@@AEAV<lambda_698284760c8add0bfb0756c19673e34b>@@V<lambda_dfb8eca1e75fef3034a8fb18dd509707>@@@?$__crt_seh_guarded_call@X@@QEAAX$$QEAV<lambda_fb3a7dec4e47f37f22dae91bb15c9095>@@AEAV<lambda_698284760c8add0bfb0756c19673e34b>@@$$QEAV<lambda_dfb8eca1e75fef3034a8fb18dd509707>@@@Z 000000018001b6c4 f i libucrt:per_thread_data.obj
 0001:0001a954       __acrt_freeptd             000000018001b954 f   libucrt:per_thread_data.obj
 0001:0001a998       __acrt_getptd              000000018001b998 f   libucrt:per_thread_data.obj
 0001:0001aa2c       __acrt_getptd_noexit       000000018001ba2c f   libucrt:per_thread_data.obj
 0001:0001aacc       __acrt_initialize_ptd      000000018001bacc f   libucrt:per_thread_data.obj
 0001:0001ab08       __acrt_uninitialize_ptd    000000018001bb08 f   libucrt:per_thread_data.obj
 0001:0001ab2c       _query_app_type            000000018001bb2c f   libucrt:report_runtime_error.obj
 0001:0001ab34       __acrt_initialize_stdio    000000018001bb34 f   libucrt:_file.obj
 0001:0001ac54       __acrt_uninitialize_stdio  000000018001bc54 f   libucrt:_file.obj
 0001:0001acb0       _lock_file                 000000018001bcb0 f   libucrt:_file.obj
 0001:0001acbc       _unlock_file               000000018001bcbc f   libucrt:_file.obj
 0001:0001acc8       __acrt_stdio_flush_nolock  000000018001bcc8 f   libucrt:fflush.obj
 0001:0001ad40       _fflush_nolock             000000018001bd40 f   libucrt:fflush.obj
 0001:0001ad8c       _flushall                  000000018001bd8c f   libucrt:fflush.obj
 0001:0001ae7c       ??$?RV<lambda_c36588078e9f5dfd39652860aa6b3aaf>@@AEAV<lambda_ec61778202f4f5fc7e7711acc23c3bca>@@V<lambda_dc9d2797ccde5d239b4a0efae8ebd7db>@@@?$__crt_seh_guarded_call@P6AXH@Z@@QEAAP6AXH@Z$$QEAV<lambda_c36588078e9f5dfd39652860aa6b3aaf>@@AEAV<lambda_ec61778202f4f5fc7e7711acc23c3bca>@@$$QEAV<lambda_dc9d2797ccde5d239b4a0efae8ebd7db>@@@Z 000000018001be7c f i libucrt:signal.obj
 0001:0001aec4       __acrt_get_sigabrt_handler 000000018001bec4 f   libucrt:signal.obj
 0001:0001aef4       __acrt_initialize_signal_handlers 000000018001bef4 f   libucrt:signal.obj
 0001:0001af14       raise                      000000018001bf14 f   libucrt:signal.obj
 0001:0001b200       _tolower_l                 000000018001c200 f   libucrt:tolower_toupper.obj
 0001:0001b340       __acrt_update_locale_info  000000018001c340 f   libucrt:locale_update.obj
 0001:0001b374       __acrt_update_multibyte_info 000000018001c374 f   libucrt:locale_update.obj
 0001:0001b3a8       __acrt_set_locale_changed  000000018001c3a8 f   libucrt:wsetlocale.obj
 0001:0001b3b4       __acrt_uninitialize_locale 000000018001c3b4 f   libucrt:wsetlocale.obj
 0001:0001b3fc       __acrt_initialize_locks    000000018001c3fc f   libucrt:locks.obj
 0001:0001b444       __acrt_lock                000000018001c444 f   libucrt:locks.obj
 0001:0001b460       __acrt_uninitialize_locks  000000018001c460 f   libucrt:locks.obj
 0001:0001b498       __acrt_unlock              000000018001c498 f   libucrt:locks.obj
 0001:0001b654       __acrt_FlsAlloc            000000018001c654 f   libucrt:winapi_thunks.obj
 0001:0001b6ac       __acrt_FlsFree             000000018001c6ac f   libucrt:winapi_thunks.obj
 0001:0001b704       __acrt_FlsGetValue         000000018001c704 f   libucrt:winapi_thunks.obj
 0001:0001b75c       __acrt_FlsSetValue         000000018001c75c f   libucrt:winapi_thunks.obj
 0001:0001b7c4       __acrt_InitializeCriticalSectionEx 000000018001c7c4 f   libucrt:winapi_thunks.obj
 0001:0001b83c       __acrt_LCMapStringEx       000000018001c83c f   libucrt:winapi_thunks.obj
 0001:0001b92c       __acrt_LocaleNameToLCID    000000018001c92c f   libucrt:winapi_thunks.obj
 0001:0001b994       __acrt_initialize_winapi_thunks 000000018001c994 f   libucrt:winapi_thunks.obj
 0001:0001b9cc       __acrt_is_packaged_app     000000018001c9cc f   libucrt:winapi_thunks.obj
 0001:0001ba54       __acrt_uninitialize_winapi_thunks 000000018001ca54 f   libucrt:winapi_thunks.obj
 0001:0001bf74       ?expand_if_necessary@?$argument_list@D@?A0xca0879c4@@AEAAHXZ 000000018001cf74 f i libucrt:argv_wildcards.obj
 0001:0001c03c       __acrt_expand_narrow_argv_wildcards 000000018001d03c f   libucrt:argv_wildcards.obj
 0001:0001c044       ??$?RV<lambda_99476a1ad63dd22509b5d3e65b0ffc95>@@AEAV<lambda_ad1ced32f4ac17aa236e5ef05d6b3b7c>@@V<lambda_f7424dd8d45958661754dc4f2697e9c3>@@@?$__crt_seh_guarded_call@X@@QEAAX$$QEAV<lambda_99476a1ad63dd22509b5d3e65b0ffc95>@@AEAV<lambda_ad1ced32f4ac17aa236e5ef05d6b3b7c>@@$$QEAV<lambda_f7424dd8d45958661754dc4f2697e9c3>@@@Z 000000018001d044 f i libucrt:mbctype.obj
 0001:0001c740       __acrt_initialize_multibyte 000000018001d740 f   libucrt:mbctype.obj
 0001:0001c768       __acrt_update_thread_multibyte_data 000000018001d768 f   libucrt:mbctype.obj
 0001:0001c828       _setmbcp_nolock            000000018001d828 f   libucrt:mbctype.obj
 0001:0001cb48       _ismbblead                 000000018001db48 f   libucrt:ismbbyte.obj
 0001:0001cb5c       __acrt_initialize_command_line 000000018001db5c f   libucrt:argv_data.obj
 0001:0001cb84       __dcrt_get_narrow_environment_from_os 000000018001db84 f   libucrt:get_environment_from_os.obj
 0001:0001cc88       _recalloc                  000000018001dc88 f   libucrt:recalloc.obj
 0001:0001cc90       _recalloc_base             000000018001dc90 f   libucrt:recalloc.obj
 0001:0001cd28       __acrt_initialize_heap     000000018001dd28 f   libucrt:heap_handle.obj
 0001:0001cd44       __acrt_uninitialize_heap   000000018001dd44 f   libucrt:heap_handle.obj
 0001:0001cf38       __acrt_initialize_lowio    000000018001df38 f   libucrt:ioinit.obj
 0001:0001cf74       __acrt_uninitialize_lowio  000000018001df74 f   libucrt:ioinit.obj
 0001:0001cfb4       __acrt_execute_initializers 000000018001dfb4 f   libucrt:shared_initialization.obj
 0001:0001d048       __acrt_execute_uninitializers 000000018001e048 f   libucrt:shared_initialization.obj
 0001:0001d098       __acrt_has_user_matherr    000000018001e098 f   libucrt:matherr.obj
 0001:0001d0b8       __acrt_initialize_user_matherr 000000018001e0b8 f   libucrt:matherr.obj
 0001:0001d0c0       __acrt_invoke_user_matherr 000000018001e0c0 f   libucrt:matherr.obj
 0001:0001d108       _query_new_mode            000000018001e108 f   libucrt:new_mode.obj
 0001:0001d110       _mbtowc_l                  000000018001e110 f   libucrt:mbtowc.obj
 0001:0001d258       mbtowc                     000000018001e258 f   libucrt:mbtowc.obj
 0001:0001d260       _fileno                    000000018001e260 f   libucrt:fileno.obj
 0001:0001d288       __pctype_func              000000018001e288 f   libucrt:ctype.obj
 0001:0001d2b8       _isctype_l                 000000018001e2b8 f   libucrt:isctype.obj
 0001:0001d3c8       __acrt_add_locale_ref      000000018001e3c8 f   libucrt:locale_refcounting.obj
 0001:0001d454       __acrt_free_locale         000000018001e454 f   libucrt:locale_refcounting.obj
 0001:0001d5cc       __acrt_locale_add_lc_time_reference 000000018001e5cc f   libucrt:locale_refcounting.obj
 0001:0001d5f4       __acrt_locale_free_lc_time_if_unreferenced 000000018001e5f4 f   libucrt:locale_refcounting.obj
 0001:0001d62c       __acrt_locale_release_lc_time_reference 000000018001e62c f   libucrt:locale_refcounting.obj
 0001:0001d654       __acrt_release_locale_ref  000000018001e654 f   libucrt:locale_refcounting.obj
 0001:0001d6fc       __acrt_update_thread_locale_data 000000018001e6fc f   libucrt:locale_refcounting.obj
 0001:0001d76c       _updatetlocinfoEx_nolock   000000018001e76c f   libucrt:locale_refcounting.obj
 0001:0001d7d4       _fcloseall                 000000018001e7d4 f   libucrt:closeall.obj
 0001:0001d888       __acrt_stdio_free_buffer_nolock 000000018001e888 f   libucrt:_freebuf.obj
 0001:0001d8c8       ??$?RV<lambda_b521505b218e5242e90febf6bfebc422>@@AEAV<lambda_6978c1fb23f02e42e1d9e99668cc68aa>@@V<lambda_314360699dd331753a4119843814e9a7>@@@?$__crt_seh_guarded_call@H@@QEAAH$$QEAV<lambda_b521505b218e5242e90febf6bfebc422>@@AEAV<lambda_6978c1fb23f02e42e1d9e99668cc68aa>@@$$QEAV<lambda_314360699dd331753a4119843814e9a7>@@@Z 000000018001e8c8 f i libucrt:commit.obj
 0001:0001d954       _commit                    000000018001e954 f   libucrt:commit.obj
 0001:0001df88       _write                     000000018001ef88 f   libucrt:write.obj
 0001:0001e074       _write_nolock              000000018001f074 f   libucrt:write.obj
 0001:0001e358       _isleadbyte_l              000000018001f358 f i libucrt:_wctype.obj
 0001:0001e6f4       __acrt_LCMapStringA        000000018001f6f4 f   libucrt:lcmapstringa.obj
 0001:0001e78c       __acrt_locale_free_monetary 000000018001f78c f   libucrt:initmon.obj
 0001:0001e898       __acrt_locale_free_numeric 000000018001f898 f   libucrt:initnum.obj
 0001:0001e95c       __acrt_locale_free_time    000000018001f95c f   libucrt:inittime.obj
 0001:0001ea64       __acrt_GetStringTypeA      000000018001fa64 f   libucrt:getstringtypea.obj
 0001:0001ece0       __acrt_DownlevelLocaleNameToLCID 000000018001fce0 f   libucrt:lcidtoname_downlevel.obj
 0001:0001ed14       strncpy_s                  000000018001fd14 f   libucrt:strncpy_s.obj
 0001:0001ede8       strpbrk                    000000018001fde8 f   libucrt:strpbrk.obj
 0001:0001ee88       _mbsdec                    000000018001fe88 f   libucrt:mbsdec.obj
 0001:0001ee90       _mbsdec_l                  000000018001fe90 f   libucrt:mbsdec.obj
 0001:0001ef40       _msize                     000000018001ff40 f   libucrt:msize.obj
 0001:0001ef7c       _realloc_base              000000018001ff7c f   libucrt:realloc_base.obj
 0001:0001f000       __acrt_lowio_create_handle_array 0000000180020000 f   libucrt:osfinfo.obj
 0001:0001f098       __acrt_lowio_destroy_handle_array 0000000180020098 f   libucrt:osfinfo.obj
 0001:0001f0e8       __acrt_lowio_ensure_fh_exists 00000001800200e8 f   libucrt:osfinfo.obj
 0001:0001f1a0       __acrt_lowio_lock_fh       00000001800201a0 f   libucrt:osfinfo.obj
 0001:0001f1c4       __acrt_lowio_unlock_fh     00000001800201c4 f   libucrt:osfinfo.obj
 0001:0001f1e8       _free_osfhnd               00000001800201e8 f   libucrt:osfinfo.obj
 0001:0001f2a4       _get_osfhandle             00000001800202a4 f   libucrt:osfinfo.obj
 0001:0001f31c       _isatty                    000000018002031c f   libucrt:isatty.obj
 0001:0001f37c       _fclose_nolock             000000018002037c f   libucrt:fclose.obj
 0001:0001f400       fclose                     0000000180020400 f   libucrt:fclose.obj
 0001:0001f508       _lseeki64_nolock           0000000180020508 f   libucrt:lseek.obj
 0001:0001f510       _putwch_nolock             0000000180020510 f   libucrt:putwch.obj
 0001:0001f56c       __strncnt                  000000018002056c f   libucrt:strncnt.obj
 0001:0001f590       log10                      0000000180020590 f   libucrt:log10.obj
 0001:0001fb3c       ??$?RV<lambda_bfedae4ebbf01fab1bb6dcc6a9e276e0>@@AEAV<lambda_2fe9b910cf3cbf4a0ab98a02ba45b3ec>@@V<lambda_237c231691f317818eb88cc1d5d642d6>@@@?$__crt_seh_guarded_call@H@@QEAAH$$QEAV<lambda_bfedae4ebbf01fab1bb6dcc6a9e276e0>@@AEAV<lambda_2fe9b910cf3cbf4a0ab98a02ba45b3ec>@@$$QEAV<lambda_237c231691f317818eb88cc1d5d642d6>@@@Z 0000000180020b3c f i libucrt:close.obj
 0001:0001fbb0       _close                     0000000180020bb0 f   libucrt:close.obj
 0001:0001fc54       _close_nolock              0000000180020c54 f   libucrt:close.obj
 0001:0001fd10       ?__acrt_stdio_free_stream@@YAXV__crt_stdio_stream@@@Z 0000000180020d10 f   libucrt:stream.obj
 0001:0001fd54       __dcrt_lowio_initialize_console_output 0000000180020d54 f   libucrt:initcon.obj
 0001:0001fd90       __dcrt_terminate_console_output 0000000180020d90 f   libucrt:initcon.obj
 0001:0001fed4       _handle_error              0000000180020ed4 f   libucrt:libm_error.obj
 0001:00020000       __acrt_initialize_fma3     0000000180021000 f   libucrt:fma3_available.obj
 0001:00020070       _log10_special             0000000180021070 f   libucrt:log_special.obj
 0001:00020140       _get_fpsr                  0000000180021140 f   libucrt:fpsr.obj
 0001:00020150       _set_fpsr                  0000000180021150 f   libucrt:fpsr.obj
 0001:0002015a       _fclrf                     000000018002115a f   libucrt:fpsr.obj
 0001:0002016e       _frnd                      000000018002116e f   libucrt:fpsr.obj
 0001:00020190       _raise_exc                 0000000180021190 f   libucrt:fpexcept.obj
 0001:000201b8       _raise_exc_ex              00000001800211b8 f   libucrt:fpexcept.obj
 0001:000204c0       _set_errno_from_matherr    00000001800214c0 f   libucrt:fpexcept.obj
 0001:000204f0       _clrfp                     00000001800214f0 f   libucrt:fpctrl.obj
 0001:00020510       _ctrlfp                    0000000180021510 f   libucrt:fpctrl.obj
 0001:0002058c       _set_statfp                000000018002158c f   libucrt:fpctrl.obj
 0001:000205ac       _statfp                    00000001800215ac f   libucrt:fpctrl.obj
 0001:000205be       IsProcessorFeaturePresent  00000001800215be f   kernel32:KERNEL32.dll
 0001:000205c4       RtlUnwindEx                00000001800215c4 f   kernel32:KERNEL32.dll
 0001:000205cc       ?DloadAcquireSectionWriteAccess@@YAXXZ 00000001800215cc f i DelayImp:delayhlp.obj
 0001:00020688       ?DloadGetSRWLockFunctionPointers@@YAEXZ 0000000180021688 f i DelayImp:delayhlp.obj
 0001:00020724       ?DloadMakePermanentImageCommit@@YAXPEAX_K@Z 0000000180021724 f i DelayImp:delayhlp.obj
 0001:000207bc       ?DloadObtainSection@@YAPEAXPEAK0@Z 00000001800217bc f i DelayImp:delayhlp.obj
 0001:00020854       ?DloadProtectSection@@YAXKPEAK@Z 0000000180021854 f i DelayImp:delayhlp.obj
 0001:000208e4       ?DloadReleaseSectionWriteAccess@@YAXXZ 00000001800218e4 f i DelayImp:delayhlp.obj
 0001:00020988       __delayLoadHelper2         0000000180021988 f   DelayImp:delayhlp.obj
 0001:00020c90       _FindPESection             0000000180021c90 f   LIBCMT:pesect.obj
 0001:00020ce0       _IsNonwritableInCurrentImage 0000000180021ce0 f   LIBCMT:pesect.obj
 0001:00020d30       _ValidateImageBase         0000000180021d30 f   LIBCMT:pesect.obj
 0001:00020d60       __GSHandlerCheck           0000000180021d60 f   LIBCMT:_gshandler_.obj
 0001:00020d80       __GSHandlerCheckCommon     0000000180021d80 f   LIBCMT:_gshandler_.obj
 0001:00020df0       _alloca_probe              0000000180021df0 f   LIBCMT:_chkstk_.obj
 0001:00020df0       __chkstk                   0000000180021df0 f   LIBCMT:_chkstk_.obj
 0001:00020e60       memcpy                     0000000180021e60 f   libvcruntime:memcpy.obj
 0001:00020e60       memmove                    0000000180021e60 f   libvcruntime:memcpy.obj
 0001:000212b0       memcmp                     00000001800222b0 f   libvcruntime:memcmp.obj
 0001:00021390       _guard_dispatch_icall_nop  0000000180022390 f   LIBCMT:_guard_dispatch_.obj
 0002:00000000       __imp_GetModuleHandleA     0000000180023000     kernel32:KERNEL32.dll
 0002:00000008       __imp_RtlCaptureContext    0000000180023008     kernel32:KERNEL32.dll
 0002:00000010       __imp_RtlLookupFunctionEntry 0000000180023010     kernel32:KERNEL32.dll
 0002:00000018       __imp_RtlVirtualUnwind     0000000180023018     kernel32:KERNEL32.dll
 0002:00000020       __imp_UnhandledExceptionFilter 0000000180023020     kernel32:KERNEL32.dll
 0002:00000028       __imp_SetUnhandledExceptionFilter 0000000180023028     kernel32:KERNEL32.dll
 0002:00000030       __imp_GetCurrentProcess    0000000180023030     kernel32:KERNEL32.dll
 0002:00000038       __imp_TerminateProcess     0000000180023038     kernel32:KERNEL32.dll
 0002:00000040       __imp_IsProcessorFeaturePresent 0000000180023040     kernel32:KERNEL32.dll
 0002:00000048       __imp_IsDebuggerPresent    0000000180023048     kernel32:KERNEL32.dll
 0002:00000050       __imp_GetStartupInfoW      0000000180023050     kernel32:KERNEL32.dll
 0002:00000058       __imp_GetModuleHandleW     0000000180023058     kernel32:KERNEL32.dll
 0002:00000060       __imp_QueryPerformanceCounter 0000000180023060     kernel32:KERNEL32.dll
 0002:00000068       __imp_GetCurrentProcessId  0000000180023068     kernel32:KERNEL32.dll
 0002:00000070       __imp_GetCurrentThreadId   0000000180023070     kernel32:KERNEL32.dll
 0002:00000078       __imp_GetSystemTimeAsFileTime 0000000180023078     kernel32:KERNEL32.dll
 0002:00000080       __imp_InitializeSListHead  0000000180023080     kernel32:KERNEL32.dll
 0002:00000088       __imp_RtlUnwindEx          0000000180023088     kernel32:KERNEL32.dll
 0002:00000090       __imp_RtlPcToFileHeader    0000000180023090     kernel32:KERNEL32.dll
 0002:00000098       __imp_RaiseException       0000000180023098     kernel32:KERNEL32.dll
 0002:000000a0       __imp_InterlockedFlushSList 00000001800230a0     kernel32:KERNEL32.dll
 0002:000000a8       __imp_GetLastError         00000001800230a8     kernel32:KERNEL32.dll
 0002:000000b0       __imp_SetLastError         00000001800230b0     kernel32:KERNEL32.dll
 0002:000000b8       __imp_EnterCriticalSection 00000001800230b8     kernel32:KERNEL32.dll
 0002:000000c0       __imp_LeaveCriticalSection 00000001800230c0     kernel32:KERNEL32.dll
 0002:000000c8       __imp_DeleteCriticalSection 00000001800230c8     kernel32:KERNEL32.dll
 0002:000000d0       __imp_InitializeCriticalSectionAndSpinCount 00000001800230d0     kernel32:KERNEL32.dll
 0002:000000d8       __imp_TlsAlloc             00000001800230d8     kernel32:KERNEL32.dll
 0002:000000e0       __imp_TlsGetValue          00000001800230e0     kernel32:KERNEL32.dll
 0002:000000e8       __imp_TlsSetValue          00000001800230e8     kernel32:KERNEL32.dll
 0002:000000f0       __imp_TlsFree              00000001800230f0     kernel32:KERNEL32.dll
 0002:000000f8       __imp_FreeLibrary          00000001800230f8     kernel32:KERNEL32.dll
 0002:00000100       __imp_GetProcAddress       0000000180023100     kernel32:KERNEL32.dll
 0002:00000108       __imp_LoadLibraryExW       0000000180023108     kernel32:KERNEL32.dll
 0002:00000110       __imp_GetStdHandle         0000000180023110     kernel32:KERNEL32.dll
 0002:00000118       __imp_GetFileType          0000000180023118     kernel32:KERNEL32.dll
 0002:00000120       __imp_GetModuleFileNameA   0000000180023120     kernel32:KERNEL32.dll
 0002:00000128       __imp_GetModuleHandleExW   0000000180023128     kernel32:KERNEL32.dll
 0002:00000130       __imp_WriteConsoleW        0000000180023130     kernel32:KERNEL32.dll
 0002:00000138       __imp_ExitProcess          0000000180023138     kernel32:KERNEL32.dll
 0002:00000140       __imp_MultiByteToWideChar  0000000180023140     kernel32:KERNEL32.dll
 0002:00000148       __imp_WideCharToMultiByte  0000000180023148     kernel32:KERNEL32.dll
 0002:00000150       __imp_HeapFree             0000000180023150     kernel32:KERNEL32.dll
 0002:00000158       __imp_HeapAlloc            0000000180023158     kernel32:KERNEL32.dll
 0002:00000160       __imp_WriteFile            0000000180023160     kernel32:KERNEL32.dll
 0002:00000168       __imp_CloseHandle          0000000180023168     kernel32:KERNEL32.dll
 0002:00000170       __imp_GetACP               0000000180023170     kernel32:KERNEL32.dll
 0002:00000178       __imp_LCMapStringW         0000000180023178     kernel32:KERNEL32.dll
 0002:00000180       __imp_FindClose            0000000180023180     kernel32:KERNEL32.dll
 0002:00000188       __imp_FindFirstFileExA     0000000180023188     kernel32:KERNEL32.dll
 0002:00000190       __imp_FindNextFileA        0000000180023190     kernel32:KERNEL32.dll
 0002:00000198       __imp_IsValidCodePage      0000000180023198     kernel32:KERNEL32.dll
 0002:000001a0       __imp_GetOEMCP             00000001800231a0     kernel32:KERNEL32.dll
 0002:000001a8       __imp_GetCPInfo            00000001800231a8     kernel32:KERNEL32.dll
 0002:000001b0       __imp_GetCommandLineA      00000001800231b0     kernel32:KERNEL32.dll
 0002:000001b8       __imp_GetCommandLineW      00000001800231b8     kernel32:KERNEL32.dll
 0002:000001c0       __imp_GetEnvironmentStringsW 00000001800231c0     kernel32:KERNEL32.dll
 0002:000001c8       __imp_FreeEnvironmentStringsW 00000001800231c8     kernel32:KERNEL32.dll
 0002:000001d0       __imp_GetProcessHeap       00000001800231d0     kernel32:KERNEL32.dll
 0002:000001d8       __imp_GetStringTypeW       00000001800231d8     kernel32:KERNEL32.dll
 0002:000001e0       __imp_FlushFileBuffers     00000001800231e0     kernel32:KERNEL32.dll
 0002:000001e8       __imp_GetConsoleCP         00000001800231e8     kernel32:KERNEL32.dll
 0002:000001f0       __imp_GetConsoleMode       00000001800231f0     kernel32:KERNEL32.dll
 0002:000001f8       __imp_HeapSize             00000001800231f8     kernel32:KERNEL32.dll
 0002:00000200       __imp_HeapReAlloc          0000000180023200     kernel32:KERNEL32.dll
 0002:00000208       __imp_SetStdHandle         0000000180023208     kernel32:KERNEL32.dll
 0002:00000210       __imp_SetFilePointerEx     0000000180023210     kernel32:KERNEL32.dll
 0002:00000218       __imp_CreateFileW          0000000180023218     kernel32:KERNEL32.dll
 0002:00000220       __imp_GetSystemInfo        0000000180023220     kernel32:KERNEL32.dll
 0002:00000228       __imp_VirtualProtect       0000000180023228     kernel32:KERNEL32.dll
 0002:00000230       __imp_VirtualQuery         0000000180023230     kernel32:KERNEL32.dll
 0002:00000238       __imp_LoadLibraryExA       0000000180023238     kernel32:KERNEL32.dll
 0002:00000240       \177KERNEL32_NULL_THUNK_DATA 0000000180023240     kernel32:KERNEL32.dll
 0002:00000248       __guard_check_icall_fptr   0000000180023248     LIBCMT:guard_support.obj
 0002:00000250       __guard_dispatch_icall_fptr 0000000180023250     LIBCMT:guard_support.obj
 0002:00000258       __xc_a                     0000000180023258     LIBCMT:initializers.obj
 0002:00000268       _register_libiconv_        0000000180023268     binding.obj
 0002:00000270       __xc_z                     0000000180023270     LIBCMT:initializers.obj
 0002:00000278       __xi_a                     0000000180023278     LIBCMT:initializers.obj
 0002:00000280       __acrt_stdio_initializer   0000000180023280     libucrt:stdio_initializer.obj
 0002:00000288       __acrt_multibyte_initializer 0000000180023288     libucrt:multibyte_initializer.obj
 0002:00000290       __acrt_tran_fma3_initializer 0000000180023290     libucrt:fma3_initializer.obj
 0002:00000298       __xi_z                     0000000180023298     LIBCMT:initializers.obj
 0002:000002a0       __xp_a                     00000001800232a0     LIBCMT:initializers.obj
 0002:000002a8       __acrt_locale_terminator   00000001800232a8     libucrt:locale_initializer.obj
 0002:000002b0       __dcrt_console_output_terminator 00000001800232b0     libucrt:console_output_initializer.obj
 0002:000002b8       __acrt_stdio_terminator    00000001800232b8     libucrt:stdio_initializer.obj
 0002:000002c0       __xp_z                     00000001800232c0     LIBCMT:initializers.obj
 0002:000002c8       __xt_a                     00000001800232c8     LIBCMT:initializers.obj
 0002:000002d0       __xt_z                     00000001800232d0     LIBCMT:initializers.obj
 0002:000002e0       __sz_node_exe              00000001800232e0     node:node.exe
 0002:000002f0       _pRawDllMain               00000001800232f0     LIBCMT:dll_dllmain.obj
 0002:000002f0       _pDefaultRawDllMain        00000001800232f0     LIBCMT:dll_dllmain.obj
 0002:00000310       ??_7exception@std@@6B@     0000000180023310     LIBCMT:throw_bad_alloc.obj
 0002:00000320       ??_C@_0BC@EOODALEL@Unknown?5exception?$AA@ 0000000180023320     LIBCMT:throw_bad_alloc.obj
 0002:00000340       ??_7bad_alloc@std@@6B@     0000000180023340     LIBCMT:throw_bad_alloc.obj
 0002:00000350       ??_C@_0P@GHFPNOJB@bad?5allocation?$AA@ 0000000180023350     LIBCMT:throw_bad_alloc.obj
 0002:00000368       ??_7bad_array_new_length@std@@6B@ 0000000180023368     LIBCMT:throw_bad_alloc.obj
 0002:00000378       ??_C@_0BF@KINCDENJ@bad?5array?5new?5length?$AA@ 0000000180023378     LIBCMT:throw_bad_alloc.obj
 0002:00000398       ??_7type_info@@6B@         0000000180023398     LIBCMT:std_type_info_static.obj
 0002:00000400       ??_C@_1BC@DNHGCMLG@?$AAa?$AAd?$AAv?$AAa?$AAp?$AAi?$AA3?$AA2?$AA?$AA@ 0000000180023400     libvcruntime:winapi_downlevel.obj
 0002:00000418       ??_C@_1DM@KHCHBNEB@?$AAa?$AAp?$AAi?$AA?9?$AAm?$AAs?$AA?9?$AAw?$AAi?$AAn?$AA?9?$AAc?$AAo?$AAr?$AAe?$AA?9?$AAf?$AAi?$AAb?$AAe?$AAr?$AAs?$AA?9?$AAl?$AA1?$AA?9?$AA1?$AA?9?$AA1?$AA?$AA@ 0000000180023418     libvcruntime:winapi_downlevel.obj
 0002:00000458       ??_C@_1DK@LPPGFMPP@?$AAa?$AAp?$AAi?$AA?9?$AAm?$AAs?$AA?9?$AAw?$AAi?$AAn?$AA?9?$AAc?$AAo?$AAr?$AAe?$AA?9?$AAs?$AAy?$AAn?$AAc?$AAh?$AA?9?$AAl?$AA1?$AA?9?$AA2?$AA?9?$AA0?$AA?$AA@ 0000000180023458     libvcruntime:winapi_downlevel.obj
 0002:00000498       ??_C@_1BC@GDMECMAK@?$AAk?$AAe?$AAr?$AAn?$AAe?$AAl?$AA3?$AA2?$AA?$AA@ 0000000180023498     libvcruntime:winapi_downlevel.obj
 0002:000004b8       ??_C@_08KNHFBNJ@FlsAlloc?$AA@ 00000001800234b8     libvcruntime:winapi_downlevel.obj
 0002:000004d0       ??_C@_07PEJMOBNF@FlsFree?$AA@ 00000001800234d0     libvcruntime:winapi_downlevel.obj
 0002:000004e0       ??_C@_0M@GDNOONDI@FlsGetValue?$AA@ 00000001800234e0     libvcruntime:winapi_downlevel.obj
 0002:000004f8       ??_C@_0M@JCPCPOEF@FlsSetValue?$AA@ 00000001800234f8     libvcruntime:winapi_downlevel.obj
 0002:00000510       ??_C@_0BM@HCFOFFN@InitializeCriticalSectionEx?$AA@ 0000000180023510     libvcruntime:winapi_downlevel.obj
 0002:00000850       ??_C@_08EHJDFFNH@__based?$CI?$AA@ 0000000180023850     libvcruntime:undname.obj
 0002:00000860       ??_C@_07KOLFKCDI@__cdecl?$AA@ 0000000180023860     libvcruntime:undname.obj
 0002:00000868       ??_C@_08GHMPAG@__pascal?$AA@ 0000000180023868     libvcruntime:undname.obj
 0002:00000878       ??_C@_09IFJBGAPI@__stdcall?$AA@ 0000000180023878     libvcruntime:undname.obj
 0002:00000888       ??_C@_0L@NPHFGOKO@__thiscall?$AA@ 0000000180023888     libvcruntime:undname.obj
 0002:00000898       ??_C@_0L@JMKHOMEK@__fastcall?$AA@ 0000000180023898     libvcruntime:undname.obj
 0002:000008a8       ??_C@_0N@BCKKPABJ@__vectorcall?$AA@ 00000001800238a8     libvcruntime:undname.obj
 0002:000008b8       ??_C@_09HIJEGCPM@__clrcall?$AA@ 00000001800238b8     libvcruntime:undname.obj
 0002:000008c4       ??_C@_06GHPCKEAG@__eabi?$AA@ 00000001800238c4     libvcruntime:undname.obj
 0002:000008d0       ??_C@_07JOMMBBKO@__ptr64?$AA@ 00000001800238d0     libvcruntime:undname.obj
 0002:000008d8       ??_C@_0L@PILCLIHE@__restrict?$AA@ 00000001800238d8     libvcruntime:undname.obj
 0002:000008e8       ??_C@_0M@GFIIJFMG@__unaligned?$AA@ 00000001800238e8     libvcruntime:undname.obj
 0002:000008f8       ??_C@_09DHDLOLLB@restrict?$CI?$AA@ 00000001800238f8     libvcruntime:undname.obj
 0002:00000904       ??_C@_04NIHEBCM@?5new?$AA@ 0000000180023904     libvcruntime:undname.obj
 0002:00000910       ??_C@_07FPCDHGMM@?5delete?$AA@ 0000000180023910     libvcruntime:undname.obj
 0002:00000918       ??_C@_01NEMOKFLO@?$DN?$AA@ 0000000180023918     libvcruntime:undname.obj
 0002:0000091c       ??_C@_02GPIOPFAK@?$DO?$DO?$AA@ 000000018002391c     libvcruntime:undname.obj
 0002:00000920       ??_C@_02FODMEDOG@?$DM?$DM?$AA@ 0000000180023920     libvcruntime:undname.obj
 0002:00000924       ??_C@_01DCLJPIOD@?$CB?$AA@ 0000000180023924     libvcruntime:undname.obj
 0002:00000928       ??_C@_02EGOFBIJA@?$DN?$DN?$AA@ 0000000180023928     libvcruntime:undname.obj
 0002:0000092c       ??_C@_02FDNJECIE@?$CB?$DN?$AA@ 000000018002392c     libvcruntime:undname.obj
 0002:00000930       ??_C@_02GPECMEKF@?$FL?$FN?$AA@ 0000000180023930     libvcruntime:undname.obj
 0002:00000938       ??_C@_08LHJFAFGD@operator?$AA@ 0000000180023938     libvcruntime:undname.obj
 0002:00000944       ??_C@_02HBOOOICD@?9?$DO?$AA@ 0000000180023944     libvcruntime:undname.obj
 0002:00000948       ??_C@_01NBENCBCI@?$CK?$AA@ 0000000180023948     libvcruntime:undname.obj
 0002:0000094c       ??_C@_02ECNGHCIF@?$CL?$CL?$AA@ 000000018002394c     libvcruntime:undname.obj
 0002:00000950       ??_C@_02BAABKJLB@?9?9?$AA@ 0000000180023950     libvcruntime:undname.obj
 0002:00000954       ??_C@_01JOAMLHOP@?9?$AA@   0000000180023954     libvcruntime:undname.obj
 0002:00000958       ??_C@_01MIFGBAGJ@?$CL?$AA@ 0000000180023958     libvcruntime:undname.obj
 0002:0000095c       ??_C@_01HNPIGOCE@?$CG?$AA@ 000000018002395c     libvcruntime:undname.obj
 0002:00000960       ??_C@_03MNHNFDLC@?9?$DO?$CK?$AA@ 0000000180023960     libvcruntime:undname.obj
 0002:00000964       ??_C@_01KMDKNFGN@?1?$AA@   0000000180023964     libvcruntime:undname.obj
 0002:00000968       ??_C@_01FGNFDNOH@?$CF?$AA@ 0000000180023968     libvcruntime:undname.obj
 0002:0000096c       ??_C@_01MNNFJEPP@?$DM?$AA@ 000000018002396c     libvcruntime:undname.obj
 0002:00000970       ??_C@_02EHCHHCKH@?$DM?$DN?$AA@ 0000000180023970     libvcruntime:undname.obj
 0002:00000974       ??_C@_01PPODPGHN@?$DO?$AA@ 0000000180023974     libvcruntime:undname.obj
 0002:00000978       ??_C@_02EEKDKGMJ@?$DO?$DN?$AA@ 0000000180023978     libvcruntime:undname.obj
 0002:0000097c       ??_C@_01IHBHIGKO@?0?$AA@   000000018002397c     libvcruntime:undname.obj
 0002:00000980       ??_C@_02HCKGKOFO@?$CI?$CJ?$AA@ 0000000180023980     libvcruntime:undname.obj
 0002:00000984       ??_C@_01PJKLJHI@?$HO?$AA@  0000000180023984     libvcruntime:undname.obj
 0002:00000988       ??_C@_01JKBOJNNK@?$FO?$AA@ 0000000180023988     libvcruntime:undname.obj
 0002:0000098c       ??_C@_01DNKMNLPK@?$HM?$AA@ 000000018002398c     libvcruntime:undname.obj
 0002:00000990       ??_C@_02PPKAJPJL@?$CG?$CG?$AA@ 0000000180023990     libvcruntime:undname.obj
 0002:00000994       ??_C@_02NONPIBCD@?$HM?$HM?$AA@ 0000000180023994     libvcruntime:undname.obj
 0002:00000998       ??_C@_02FPIMKNGF@?$CK?$DN?$AA@ 0000000180023998     libvcruntime:undname.obj
 0002:0000099c       ??_C@_02FOEOMHFC@?$CL?$DN?$AA@ 000000018002399c     libvcruntime:undname.obj
 0002:000009a0       ??_C@_02FKMDLLOA@?9?$DN?$AA@ 00000001800239a0     libvcruntime:undname.obj
 0002:000009a4       ??_C@_02FJEHGPIO@?1?$DN?$AA@ 00000001800239a4     libvcruntime:undname.obj
 0002:000009a8       ??_C@_02FENAOKFI@?$CF?$DN?$AA@ 00000001800239a8     libvcruntime:undname.obj
 0002:000009ac       ??_C@_03IKFCCPFF@?$DO?$DO?$DN?$AA@ 00000001800239ac     libvcruntime:undname.obj
 0002:000009b0       ??_C@_03CDNPDDLA@?$DM?$DM?$DN?$AA@ 00000001800239b0     libvcruntime:undname.obj
 0002:000009b4       ??_C@_02FGJGFEAB@?$CG?$DN?$AA@ 00000001800239b4     libvcruntime:undname.obj
 0002:000009b8       ??_C@_02DHLNPPGH@?$HM?$DN?$AA@ 00000001800239b8     libvcruntime:undname.obj
 0002:000009bc       ??_C@_02MHEGNOJ@?$FO?$DN?$AA@ 00000001800239bc     libvcruntime:undname.obj
 0002:000009c0       ??_C@_09IFPLHPGF@?$GAvftable?8?$AA@ 00000001800239c0     libvcruntime:undname.obj
 0002:000009d0       ??_C@_09BLBHBJP@?$GAvbtable?8?$AA@ 00000001800239d0     libvcruntime:undname.obj
 0002:000009e0       ??_C@_07FEEIOKP@?$GAvcall?8?$AA@ 00000001800239e0     libvcruntime:undname.obj
 0002:000009e8       ??_C@_08LLFFHHDJ@?$GAtypeof?8?$AA@ 00000001800239e8     libvcruntime:undname.obj
 0002:000009f8       ??_C@_0BF@KDPPACIK@?$GAlocal?5static?5guard?8?$AA@ 00000001800239f8     libvcruntime:undname.obj
 0002:00000a10       ??_C@_08OBABFOLI@?$GAstring?8?$AA@ 0000000180023a10     libvcruntime:undname.obj
 0002:00000a20       ??_C@_0BD@JDLKDPAB@?$GAvbase?5destructor?8?$AA@ 0000000180023a20     libvcruntime:undname.obj
 0002:00000a38       ??_C@_0BN@DEGPLNFK@?$GAvector?5deleting?5destructor?8?$AA@ 0000000180023a38     libvcruntime:undname.obj
 0002:00000a58       ??_C@_0BO@OBMKPJIG@?$GAdefault?5constructor?5closure?8?$AA@ 0000000180023a58     libvcruntime:undname.obj
 0002:00000a78       ??_C@_0BN@IMDCHIKM@?$GAscalar?5deleting?5destructor?8?$AA@ 0000000180023a78     libvcruntime:undname.obj
 0002:00000a98       ??_C@_0BO@PFGOCPJJ@?$GAvector?5constructor?5iterator?8?$AA@ 0000000180023a98     libvcruntime:undname.obj
 0002:00000ab8       ??_C@_0BN@LFPFMEDL@?$GAvector?5destructor?5iterator?8?$AA@ 0000000180023ab8     libvcruntime:undname.obj
 0002:00000ad8       ??_C@_0CE@IKBNEHA@?$GAvector?5vbase?5constructor?5iterat@ 0000000180023ad8     libvcruntime:undname.obj
 0002:00000b00       ??_C@_0BL@NILFHHPC@?$GAvirtual?5displacement?5map?8?$AA@ 0000000180023b00     libvcruntime:undname.obj
 0002:00000b20       ??_C@_0CB@JONCMFFK@?$GAeh?5vector?5constructor?5iterator?8@ 0000000180023b20     libvcruntime:undname.obj
 0002:00000b48       ??_C@_0CA@GCEOPDGL@?$GAeh?5vector?5destructor?5iterator?8?$AA@ 0000000180023b48     libvcruntime:undname.obj
 0002:00000b68       ??_C@_0CH@OOJPLCPH@?$GAeh?5vector?5vbase?5constructor?5ite@ 0000000180023b68     libvcruntime:undname.obj
 0002:00000b90       ??_C@_0BL@LLKPOHJI@?$GAcopy?5constructor?5closure?8?$AA@ 0000000180023b90     libvcruntime:undname.obj
 0002:00000bb0       ??_C@_0BA@KBCDOMBN@?$GAudt?5returning?8?$AA@ 0000000180023bb0     libvcruntime:undname.obj
 0002:00000bc0       ??_C@_03KLGMFNMG@?$GAEH?$AA@ 0000000180023bc0     libvcruntime:undname.obj
 0002:00000bc4       ??_C@_05KHLCHHI@?$GARTTI?$AA@ 0000000180023bc4     libvcruntime:undname.obj
 0002:00000bd0       ??_C@_0BA@KKLDJDLB@?$GAlocal?5vftable?8?$AA@ 0000000180023bd0     libvcruntime:undname.obj
 0002:00000be0       ??_C@_0CE@IIHCMGGL@?$GAlocal?5vftable?5constructor?5closu@ 0000000180023be0     libvcruntime:undname.obj
 0002:00000c04       ??_C@_06FHBGPFGH@?5new?$FL?$FN?$AA@ 0000000180023c04     libvcruntime:undname.obj
 0002:00000c10       ??_C@_09LBNFPBCA@?5delete?$FL?$FN?$AA@ 0000000180023c10     libvcruntime:undname.obj
 0002:00000c20       ??_C@_0P@HJKNJFNN@?$GAomni?5callsig?8?$AA@ 0000000180023c20     libvcruntime:undname.obj
 0002:00000c30       ??_C@_0BL@CNOONJFP@?$GAplacement?5delete?5closure?8?$AA@ 0000000180023c30     libvcruntime:undname.obj
 0002:00000c50       ??_C@_0BN@CKNJLHMB@?$GAplacement?5delete?$FL?$FN?5closure?8?$AA@ 0000000180023c50     libvcruntime:undname.obj
 0002:00000c70       ??_C@_0CG@CFDHKGGD@?$GAmanaged?5vector?5constructor?5iter@ 0000000180023c70     libvcruntime:undname.obj
 0002:00000c98       ??_C@_0CF@IMGKMJNO@?$GAmanaged?5vector?5destructor?5itera@ 0000000180023c98     libvcruntime:undname.obj
 0002:00000cc0       ??_C@_0CG@HLDDJMAG@?$GAeh?5vector?5copy?5constructor?5iter@ 0000000180023cc0     libvcruntime:undname.obj
 0002:00000ce8       ??_C@_0CM@FCBBDIGB@?$GAeh?5vector?5vbase?5copy?5constructo@ 0000000180023ce8     libvcruntime:undname.obj
 0002:00000d18       ??_C@_0BL@CLIPGLGB@?$GAdynamic?5initializer?5for?5?8?$AA@ 0000000180023d18     libvcruntime:undname.obj
 0002:00000d38       ??_C@_0CB@PDBIFEP@?$GAdynamic?5atexit?5destructor?5for?5?8@ 0000000180023d38     libvcruntime:undname.obj
 0002:00000d60       ??_C@_0CD@CGAJBKEJ@?$GAvector?5copy?5constructor?5iterato@ 0000000180023d60     libvcruntime:undname.obj
 0002:00000d88       ??_C@_0CJ@GJELGAMM@?$GAvector?5vbase?5copy?5constructor?5i@ 0000000180023d88     libvcruntime:undname.obj
 0002:00000db8       ??_C@_0CL@FGIJHLCE@?$GAmanaged?5vector?5copy?5constructor@ 0000000180023db8     libvcruntime:undname.obj
 0002:00000de8       ??_C@_0BM@PMGGMLDN@?$GAlocal?5static?5thread?5guard?8?$AA@ 0000000180023de8     libvcruntime:undname.obj
 0002:00000e08       ??_C@_0N@BDNMDMOL@operator?5?$CC?$CC?5?$AA@ 0000000180023e08     libvcruntime:undname.obj
 0002:00000e18       ??_C@_0BC@DAFEJGAK@?5Type?5Descriptor?8?$AA@ 0000000180023e18     libvcruntime:undname.obj
 0002:00000e30       ??_C@_0BM@LDKODKLH@?5Base?5Class?5Descriptor?5at?5?$CI?$AA@ 0000000180023e30     libvcruntime:undname.obj
 0002:00000e50       ??_C@_0BD@LGICGFMM@?5Base?5Class?5Array?8?$AA@ 0000000180023e50     libvcruntime:undname.obj
 0002:00000e68       ??_C@_0BN@MECKDCOJ@?5Class?5Hierarchy?5Descriptor?8?$AA@ 0000000180023e68     libvcruntime:undname.obj
 0002:00000e88       ??_C@_0BK@CFCOFLF@?5Complete?5Object?5Locator?8?$AA@ 0000000180023e88     libvcruntime:undname.obj
 0002:00001020       __acrt_exception_action_table 0000000180024020     libucrt:exception_filter.obj
 0002:000010e0       __acrt_signal_action_table_count 00000001800240e0     libucrt:exception_filter.obj
 0002:000010e8       __acrt_signal_action_first_fpe_index 00000001800240e8     libucrt:exception_filter.obj
 0002:000010f0       __acrt_signal_action_fpe_count 00000001800240f0     libucrt:exception_filter.obj
 0002:000010f8       ??_C@_1BI@BGOHAHKC@?$AAm?$AAs?$AAc?$AAo?$AAr?$AAe?$AAe?$AA?4?$AAd?$AAl?$AAl?$AA?$AA@ 00000001800240f8     libucrt:exit.obj
 0002:00001110       ??_C@_0P@MIGLKIOC@CorExitProcess?$AA@ 0000000180024110     libucrt:exit.obj
 0002:00001210       __lc_time_c                0000000180024210     libucrt:nlsdata.obj
 0002:000014d0       ??_C@_03KOEHGMDN@Sun?$AA@  00000001800244d0     libucrt:nlsdata.obj
 0002:000014d4       ??_C@_03PDAGKDH@Mon?$AA@   00000001800244d4     libucrt:nlsdata.obj
 0002:000014d8       ??_C@_03NAGEINEP@Tue?$AA@  00000001800244d8     libucrt:nlsdata.obj
 0002:000014dc       ??_C@_03MHOMLAJA@Wed?$AA@  00000001800244dc     libucrt:nlsdata.obj
 0002:000014e0       ??_C@_03IOFIKPDN@Thu?$AA@  00000001800244e0     libucrt:nlsdata.obj
 0002:000014e4       ??_C@_03IDIOELNC@Fri?$AA@  00000001800244e4     libucrt:nlsdata.obj
 0002:000014e8       ??_C@_03FEFJNEK@Sat?$AA@   00000001800244e8     libucrt:nlsdata.obj
 0002:000014ec       ??_C@_06OOPIFAJ@Sunday?$AA@ 00000001800244ec     libucrt:nlsdata.obj
 0002:000014f4       ??_C@_06JLEDEDGH@Monday?$AA@ 00000001800244f4     libucrt:nlsdata.obj
 0002:00001500       ??_C@_07BAAGCFCM@Tuesday?$AA@ 0000000180024500     libucrt:nlsdata.obj
 0002:00001508       ??_C@_09DLIGFAKA@Wednesday?$AA@ 0000000180024508     libucrt:nlsdata.obj
 0002:00001518       ??_C@_08HACCIKIA@Thursday?$AA@ 0000000180024518     libucrt:nlsdata.obj
 0002:00001524       ??_C@_06JECMNKMI@Friday?$AA@ 0000000180024524     libucrt:nlsdata.obj
 0002:00001530       ??_C@_08INBOOONO@Saturday?$AA@ 0000000180024530     libucrt:nlsdata.obj
 0002:0000153c       ??_C@_03JIHJHPIE@Jan?$AA@  000000018002453c     libucrt:nlsdata.obj
 0002:00001540       ??_C@_03HJBDCHOM@Feb?$AA@  0000000180024540     libucrt:nlsdata.obj
 0002:00001544       ??_C@_03ODNJBKGA@Mar?$AA@  0000000180024544     libucrt:nlsdata.obj
 0002:00001548       ??_C@_03LEOLGMJP@Apr?$AA@  0000000180024548     libucrt:nlsdata.obj
 0002:0000154c       ??_C@_03CNMDKL@May?$AA@    000000018002454c     libucrt:nlsdata.obj
 0002:00001550       ??_C@_03IDFGHECI@Jun?$AA@  0000000180024550     libucrt:nlsdata.obj
 0002:00001554       ??_C@_03LBGABGKK@Jul?$AA@  0000000180024554     libucrt:nlsdata.obj
 0002:00001558       ??_C@_03IFJFEIGA@Aug?$AA@  0000000180024558     libucrt:nlsdata.obj
 0002:0000155c       ??_C@_03GGCAPAJC@Sep?$AA@  000000018002455c     libucrt:nlsdata.obj
 0002:00001560       ??_C@_03BMAOKBAD@Oct?$AA@  0000000180024560     libucrt:nlsdata.obj
 0002:00001564       ??_C@_03JPJOFNIA@Nov?$AA@  0000000180024564     libucrt:nlsdata.obj
 0002:00001568       ??_C@_03MKABNOCG@Dec?$AA@  0000000180024568     libucrt:nlsdata.obj
 0002:00001570       ??_C@_07CGJPFGJA@January?$AA@ 0000000180024570     libucrt:nlsdata.obj
 0002:00001578       ??_C@_08GNJGEPFN@February?$AA@ 0000000180024578     libucrt:nlsdata.obj
 0002:00001584       ??_C@_05HPCKOFNC@March?$AA@ 0000000180024584     libucrt:nlsdata.obj
 0002:0000158c       ??_C@_05DMJDNLEJ@April?$AA@ 000000018002458c     libucrt:nlsdata.obj
 0002:00001594       ??_C@_04CNLMGBGM@June?$AA@ 0000000180024594     libucrt:nlsdata.obj
 0002:0000159c       ??_C@_04MIEPOIFP@July?$AA@ 000000018002459c     libucrt:nlsdata.obj
 0002:000015a4       ??_C@_06LBBHFDDG@August?$AA@ 00000001800245a4     libucrt:nlsdata.obj
 0002:000015b0       ??_C@_09BHHEALKD@September?$AA@ 00000001800245b0     libucrt:nlsdata.obj
 0002:000015c0       ??_C@_07JJNFCEND@October?$AA@ 00000001800245c0     libucrt:nlsdata.obj
 0002:000015c8       ??_C@_08HCHEGEOA@November?$AA@ 00000001800245c8     libucrt:nlsdata.obj
 0002:000015d8       ??_C@_08EDHMEBNP@December?$AA@ 00000001800245d8     libucrt:nlsdata.obj
 0002:000015e4       ??_C@_02DEDBPAFC@AM?$AA@   00000001800245e4     libucrt:nlsdata.obj
 0002:000015e8       ??_C@_02CJNFDJBF@PM?$AA@   00000001800245e8     libucrt:nlsdata.obj
 0002:000015f0       ??_C@_08BPBNCDIB@MM?1dd?1yy?$AA@ 00000001800245f0     libucrt:nlsdata.obj
 0002:00001600       ??_C@_0BE@CKGJFCPC@dddd?0?5MMMM?5dd?0?5yyyy?$AA@ 0000000180024600     libucrt:nlsdata.obj
 0002:00001618       ??_C@_08JCCMCCIL@HH?3mm?3ss?$AA@ 0000000180024618     libucrt:nlsdata.obj
 0002:00001628       ??_C@_17MBGCMIPB@?$AAS?$AAu?$AAn?$AA?$AA@ 0000000180024628     libucrt:nlsdata.obj
 0002:00001630       ??_C@_17KBOMKBF@?$AAM?$AAo?$AAn?$AA?$AA@ 0000000180024630     libucrt:nlsdata.obj
 0002:00001638       ??_C@_17BMKGEGOJ@?$AAT?$AAu?$AAe?$AA?$AA@ 0000000180024638     libucrt:nlsdata.obj
 0002:00001640       ??_C@_17CJEDCEPE@?$AAW?$AAe?$AAd?$AA?$AA@ 0000000180024640     libucrt:nlsdata.obj
 0002:00001648       ??_C@_17PDPHAADD@?$AAT?$AAh?$AAu?$AA?$AA@ 0000000180024648     libucrt:nlsdata.obj
 0002:00001650       ??_C@_17HFOLPPLP@?$AAF?$AAr?$AAi?$AA?$AA@ 0000000180024650     libucrt:nlsdata.obj
 0002:00001658       ??_C@_17GGIBDPIH@?$AAS?$AAa?$AAt?$AA?$AA@ 0000000180024658     libucrt:nlsdata.obj
 0002:00001660       ??_C@_1O@IHNHDHPB@?$AAS?$AAu?$AAn?$AAd?$AAa?$AAy?$AA?$AA@ 0000000180024660     libucrt:nlsdata.obj
 0002:00001670       ??_C@_1O@MMNBFLIA@?$AAM?$AAo?$AAn?$AAd?$AAa?$AAy?$AA?$AA@ 0000000180024670     libucrt:nlsdata.obj
 0002:00001680       ??_C@_1BA@ENFBFFEK@?$AAT?$AAu?$AAe?$AAs?$AAd?$AAa?$AAy?$AA?$AA@ 0000000180024680     libucrt:nlsdata.obj
 0002:00001690       ??_C@_1BE@EBOGMDOH@?$AAW?$AAe?$AAd?$AAn?$AAe?$AAs?$AAd?$AAa?$AAy?$AA?$AA@ 0000000180024690     libucrt:nlsdata.obj
 0002:000016a8       ??_C@_1BC@HHMNLIHE@?$AAT?$AAh?$AAu?$AAr?$AAs?$AAd?$AAa?$AAy?$AA?$AA@ 00000001800246a8     libucrt:nlsdata.obj
 0002:000016c0       ??_C@_1O@PDICJHAG@?$AAF?$AAr?$AAi?$AAd?$AAa?$AAy?$AA?$AA@ 00000001800246c0     libucrt:nlsdata.obj
 0002:000016d0       ??_C@_1BC@ENMNNPAJ@?$AAS?$AAa?$AAt?$AAu?$AAr?$AAd?$AAa?$AAy?$AA?$AA@ 00000001800246d0     libucrt:nlsdata.obj
 0002:000016e8       ??_C@_17DKNBKCHM@?$AAJ?$AAa?$AAn?$AA?$AA@ 00000001800246e8     libucrt:nlsdata.obj
 0002:000016f0       ??_C@_17LMDJEKJN@?$AAF?$AAe?$AAb?$AA?$AA@ 00000001800246f0     libucrt:nlsdata.obj
 0002:000016f8       ??_C@_17CKNLEDEC@?$AAM?$AAa?$AAr?$AA?$AA@ 00000001800246f8     libucrt:nlsdata.obj
 0002:00001700       ??_C@_17LFPOIHDD@?$AAA?$AAp?$AAr?$AA?$AA@ 0000000180024700     libucrt:nlsdata.obj
 0002:00001708       ??_C@_17PNNKMEED@?$AAM?$AAa?$AAy?$AA?$AA@ 0000000180024708     libucrt:nlsdata.obj
 0002:00001710       ??_C@_17KCJGOCPB@?$AAJ?$AAu?$AAn?$AA?$AA@ 0000000180024710     libucrt:nlsdata.obj
 0002:00001718       ??_C@_17IJPCKHK@?$AAJ?$AAu?$AAl?$AA?$AA@ 0000000180024718     libucrt:nlsdata.obj
 0002:00001720       ??_C@_17ICPELBCN@?$AAA?$AAu?$AAg?$AA?$AA@ 0000000180024720     libucrt:nlsdata.obj
 0002:00001728       ??_C@_17HCHCOKMG@?$AAS?$AAe?$AAp?$AA?$AA@ 0000000180024728     libucrt:nlsdata.obj
 0002:00001730       ??_C@_17FNLKOI@?$AAO?$AAc?$AAt?$AA?$AA@ 0000000180024730     libucrt:nlsdata.obj
 0002:00001738       ??_C@_17BBDMLCIG@?$AAN?$AAo?$AAv?$AA?$AA@ 0000000180024738     libucrt:nlsdata.obj
 0002:00001740       ??_C@_17EGKACKIF@?$AAD?$AAe?$AAc?$AA?$AA@ 0000000180024740     libucrt:nlsdata.obj
 0002:00001748       ??_C@_1BA@EFMEIEBA@?$AAJ?$AAa?$AAn?$AAu?$AAa?$AAr?$AAy?$AA?$AA@ 0000000180024748     libucrt:nlsdata.obj
 0002:00001758       ??_C@_1BC@JGDDFFAM@?$AAF?$AAe?$AAb?$AAr?$AAu?$AAa?$AAr?$AAy?$AA?$AA@ 0000000180024758     libucrt:nlsdata.obj
 0002:00001770       ??_C@_1M@IKEENEDF@?$AAM?$AAa?$AAr?$AAc?$AAh?$AA?$AA@ 0000000180024770     libucrt:nlsdata.obj
 0002:00001780       ??_C@_1M@GJNLMHFD@?$AAA?$AAp?$AAr?$AAi?$AAl?$AA?$AA@ 0000000180024780     libucrt:nlsdata.obj
 0002:00001790       ??_C@_19EPFLPGAP@?$AAJ?$AAu?$AAn?$AAe?$AA?$AA@ 0000000180024790     libucrt:nlsdata.obj
 0002:000017a0       ??_C@_19BIFMLPCD@?$AAJ?$AAu?$AAl?$AAy?$AA?$AA@ 00000001800247a0     libucrt:nlsdata.obj
 0002:000017b0       ??_C@_1O@PAHLKOAC@?$AAA?$AAu?$AAg?$AAu?$AAs?$AAt?$AA?$AA@ 00000001800247b0     libucrt:nlsdata.obj
 0002:000017c0       ??_C@_1BE@DKAAMBJL@?$AAS?$AAe?$AAp?$AAt?$AAe?$AAm?$AAb?$AAe?$AAr?$AA?$AA@ 00000001800247c0     libucrt:nlsdata.obj
 0002:000017d8       ??_C@_1BA@EPANDLNG@?$AAO?$AAc?$AAt?$AAo?$AAb?$AAe?$AAr?$AA?$AA@ 00000001800247d8     libucrt:nlsdata.obj
 0002:000017e8       ??_C@_1BC@BGLIFPF@?$AAN?$AAo?$AAv?$AAe?$AAm?$AAb?$AAe?$AAr?$AA?$AA@ 00000001800247e8     libucrt:nlsdata.obj
 0002:00001800       ??_C@_1BC@FEMKIFH@?$AAD?$AAe?$AAc?$AAe?$AAm?$AAb?$AAe?$AAr?$AA?$AA@ 0000000180024800     libucrt:nlsdata.obj
 0002:00001814       ??_C@_15ODEHAHHF@?$AAA?$AAM?$AA?$AA@ 0000000180024814     libucrt:nlsdata.obj
 0002:0000181c       ??_C@_15CLMNNGEL@?$AAP?$AAM?$AA?$AA@ 000000018002481c     libucrt:nlsdata.obj
 0002:00001828       ??_C@_1BC@IEBCMHCM@?$AAM?$AAM?$AA?1?$AAd?$AAd?$AA?1?$AAy?$AAy?$AA?$AA@ 0000000180024828     libucrt:nlsdata.obj
 0002:00001840       ??_C@_1CI@KNAKOEBC@?$AAd?$AAd?$AAd?$AAd?$AA?0?$AA?5?$AAM?$AAM?$AAM?$AAM?$AA?5?$AAd?$AAd?$AA?0?$AA?5?$AAy?$AAy?$AAy?$AAy?$AA?$AA@ 0000000180024840     libucrt:nlsdata.obj
 0002:00001868       ??_C@_1BC@GDGBMEMK@?$AAH?$AAH?$AA?3?$AAm?$AAm?$AA?3?$AAs?$AAs?$AA?$AA@ 0000000180024868     libucrt:nlsdata.obj
 0002:00001880       ??_C@_1M@BMHNFIME@?$AAe?$AAn?$AA?9?$AAU?$AAS?$AA?$AA@ 0000000180024880     libucrt:nlsdata.obj
 0002:00001930       ??_C@_1EG@CNNIPFIM@?$AAa?$AAp?$AAi?$AA?9?$AAm?$AAs?$AA?9?$AAw?$AAi?$AAn?$AA?9?$AAa?$AAp?$AAp?$AAm?$AAo?$AAd?$AAe?$AAl?$AA?9?$AAr?$AAu?$AAn?$AAt?$AAi?$AAm?$AAe?$AA?9?$AAl?$AA1?$AA?9?$AA1@ 0000000180024930     libucrt:winapi_thunks.obj
 0002:00001980       ??_C@_1EA@JGEFHKEI@?$AAa?$AAp?$AAi?$AA?9?$AAm?$AAs?$AA?9?$AAw?$AAi?$AAn?$AA?9?$AAc?$AAo?$AAr?$AAe?$AA?9?$AAd?$AAa?$AAt?$AAe?$AAt?$AAi?$AAm?$AAe?$AA?9?$AAl?$AA1?$AA?9?$AA1?$AA?9?$AA1?$AA?$AA@ 0000000180024980     libucrt:winapi_thunks.obj
 0002:000019c0       ??_C@_1DI@GCIAAENM@?$AAa?$AAp?$AAi?$AA?9?$AAm?$AAs?$AA?9?$AAw?$AAi?$AAn?$AA?9?$AAc?$AAo?$AAr?$AAe?$AA?9?$AAf?$AAi?$AAl?$AAe?$AA?9?$AAl?$AA2?$AA?9?$AA1?$AA?9?$AA1?$AA?$AA@ 00000001800249c0     libucrt:winapi_thunks.obj
 0002:00001a00       ??_C@_1EI@MPIAOHOC@?$AAa?$AAp?$AAi?$AA?9?$AAm?$AAs?$AA?9?$AAw?$AAi?$AAn?$AA?9?$AAc?$AAo?$AAr?$AAe?$AA?9?$AAl?$AAo?$AAc?$AAa?$AAl?$AAi?$AAz?$AAa?$AAt?$AAi?$AAo?$AAn?$AA?9?$AAl?$AA1?$AA?9@ 0000000180024a00     libucrt:winapi_thunks.obj
 0002:00001a50       ??_C@_1FK@FPHCKFIE@?$AAa?$AAp?$AAi?$AA?9?$AAm?$AAs?$AA?9?$AAw?$AAi?$AAn?$AA?9?$AAc?$AAo?$AAr?$AAe?$AA?9?$AAl?$AAo?$AAc?$AAa?$AAl?$AAi?$AAz?$AAa?$AAt?$AAi?$AAo?$AAn?$AA?9?$AAo?$AAb?$AAs@ 0000000180024a50     libucrt:winapi_thunks.obj
 0002:00001ab0       ??_C@_1EM@DILCGIIO@?$AAa?$AAp?$AAi?$AA?9?$AAm?$AAs?$AA?9?$AAw?$AAi?$AAn?$AA?9?$AAc?$AAo?$AAr?$AAe?$AA?9?$AAp?$AAr?$AAo?$AAc?$AAe?$AAs?$AAs?$AAt?$AAh?$AAr?$AAe?$AAa?$AAd?$AAs?$AA?9?$AAl@ 0000000180024ab0     libucrt:winapi_thunks.obj
 0002:00001b00       ??_C@_1DM@LNCGDDPN@?$AAa?$AAp?$AAi?$AA?9?$AAm?$AAs?$AA?9?$AAw?$AAi?$AAn?$AA?9?$AAc?$AAo?$AAr?$AAe?$AA?9?$AAs?$AAt?$AAr?$AAi?$AAn?$AAg?$AA?9?$AAl?$AA1?$AA?9?$AA1?$AA?9?$AA0?$AA?$AA@ 0000000180024b00     libucrt:winapi_thunks.obj
 0002:00001b40       ??_C@_1DO@FPAPJEMD@?$AAa?$AAp?$AAi?$AA?9?$AAm?$AAs?$AA?9?$AAw?$AAi?$AAn?$AA?9?$AAc?$AAo?$AAr?$AAe?$AA?9?$AAs?$AAy?$AAs?$AAi?$AAn?$AAf?$AAo?$AA?9?$AAl?$AA1?$AA?9?$AA2?$AA?9?$AA1?$AA?$AA@ 0000000180024b40     libucrt:winapi_thunks.obj
 0002:00001b80       ??_C@_1DK@NDHNAHIO@?$AAa?$AAp?$AAi?$AA?9?$AAm?$AAs?$AA?9?$AAw?$AAi?$AAn?$AA?9?$AAc?$AAo?$AAr?$AAe?$AA?9?$AAw?$AAi?$AAn?$AAr?$AAt?$AA?9?$AAl?$AA1?$AA?9?$AA1?$AA?9?$AA0?$AA?$AA@ 0000000180024b80     libucrt:winapi_thunks.obj
 0002:00001bc0       ??_C@_1DM@KGHDGBCM@?$AAa?$AAp?$AAi?$AA?9?$AAm?$AAs?$AA?9?$AAw?$AAi?$AAn?$AA?9?$AAc?$AAo?$AAr?$AAe?$AA?9?$AAx?$AAs?$AAt?$AAa?$AAt?$AAe?$AA?9?$AAl?$AA2?$AA?9?$AA1?$AA?9?$AA0?$AA?$AA@ 0000000180024bc0     libucrt:winapi_thunks.obj
 0002:00001c00       ??_C@_1EO@IJIOEFOH@?$AAa?$AAp?$AAi?$AA?9?$AAm?$AAs?$AA?9?$AAw?$AAi?$AAn?$AA?9?$AAr?$AAt?$AAc?$AAo?$AAr?$AAe?$AA?9?$AAn?$AAt?$AAu?$AAs?$AAe?$AAr?$AA?9?$AAw?$AAi?$AAn?$AAd?$AAo?$AAw?$AA?9@ 0000000180024c00     libucrt:winapi_thunks.obj
 0002:00001c50       ??_C@_1FG@HHGEKANL@?$AAa?$AAp?$AAi?$AA?9?$AAm?$AAs?$AA?9?$AAw?$AAi?$AAn?$AA?9?$AAs?$AAe?$AAc?$AAu?$AAr?$AAi?$AAt?$AAy?$AA?9?$AAs?$AAy?$AAs?$AAt?$AAe?$AAm?$AAf?$AAu?$AAn?$AAc?$AAt?$AAi@ 0000000180024c50     libucrt:winapi_thunks.obj
 0002:00001cb0       ??_C@_1FG@NCKKOLKO@?$AAe?$AAx?$AAt?$AA?9?$AAm?$AAs?$AA?9?$AAw?$AAi?$AAn?$AA?9?$AAk?$AAe?$AAr?$AAn?$AAe?$AAl?$AA3?$AA2?$AA?9?$AAp?$AAa?$AAc?$AAk?$AAa?$AAg?$AAe?$AA?9?$AAc?$AAu?$AAr?$AAr@ 0000000180024cb0     libucrt:winapi_thunks.obj
 0002:00001d10       ??_C@_1EG@DBIOJECG@?$AAe?$AAx?$AAt?$AA?9?$AAm?$AAs?$AA?9?$AAw?$AAi?$AAn?$AA?9?$AAn?$AAt?$AAu?$AAs?$AAe?$AAr?$AA?9?$AAd?$AAi?$AAa?$AAl?$AAo?$AAg?$AAb?$AAo?$AAx?$AA?9?$AAl?$AA1?$AA?9?$AA1@ 0000000180024d10     libucrt:winapi_thunks.obj
 0002:00001d60       ??_C@_1EO@FIHMJCLF@?$AAe?$AAx?$AAt?$AA?9?$AAm?$AAs?$AA?9?$AAw?$AAi?$AAn?$AA?9?$AAn?$AAt?$AAu?$AAs?$AAe?$AAr?$AA?9?$AAw?$AAi?$AAn?$AAd?$AAo?$AAw?$AAs?$AAt?$AAa?$AAt?$AAi?$AAo?$AAn?$AA?9@ 0000000180024d60     libucrt:winapi_thunks.obj
 0002:00001db0       ??_C@_1O@BCCLBEOE@?$AAu?$AAs?$AAe?$AAr?$AA3?$AA2?$AA?$AA@ 0000000180024db0     libucrt:winapi_thunks.obj
 0002:00001de8       ??_C@_0BE@JOGNEJCI@GetCurrentPackageId?$AA@ 0000000180024de8     libucrt:winapi_thunks.obj
 0002:00001e10       ??_C@_0O@KKBNKAPF@LCMapStringEx?$AA@ 0000000180024e10     libucrt:winapi_thunks.obj
 0002:00001e28       ??_C@_0BB@HBDEELFH@LocaleNameToLCID?$AA@ 0000000180024e28     libucrt:winapi_thunks.obj
 0002:00001e60       ??_C@_1M@HPNHIDJI@?$AAj?$AAa?$AA?9?$AAJ?$AAP?$AA?$AA@ 0000000180024e60     libucrt:mbctype.obj
 0002:00001e70       ??_C@_1M@BIBDDEMK@?$AAz?$AAh?$AA?9?$AAC?$AAN?$AA?$AA@ 0000000180024e70     libucrt:mbctype.obj
 0002:00001e80       ??_C@_1M@JLOOOEGK@?$AAk?$AAo?$AA?9?$AAK?$AAR?$AA?$AA@ 0000000180024e80     libucrt:mbctype.obj
 0002:00001e90       ??_C@_1M@CLNBBOPM@?$AAz?$AAh?$AA?9?$AAT?$AAW?$AA?$AA@ 0000000180024e90     libucrt:mbctype.obj
 0002:00001ea0       __newctype                 0000000180024ea0     libucrt:ctype.obj
 0002:000021a0       __newclmap                 00000001800251a0     libucrt:ctype.obj
 0002:00002320       __newcumap                 0000000180025320     libucrt:ctype.obj
 0002:000024a0       ??_C@_15PJPFLCCM@?$AAu?$AAk?$AA?$AA@ 00000001800254a0     libucrt:get_qualified_locale.obj
 0002:000032f0       ??_C@_15EMKDOKLE@?$AAa?$AAr?$AA?$AA@ 00000001800262f0     libucrt:lcidtoname_downlevel.obj
 0002:000032f8       ??_C@_15KNPADPLH@?$AAb?$AAg?$AA?$AA@ 00000001800262f8     libucrt:lcidtoname_downlevel.obj
 0002:00003300       ??_C@_15EDMHLDMO@?$AAc?$AAa?$AA?$AA@ 0000000180026300     libucrt:lcidtoname_downlevel.obj
 0002:00003308       ??_C@_1O@BPEAJADD@?$AAz?$AAh?$AA?9?$AAC?$AAH?$AAS?$AA?$AA@ 0000000180026308     libucrt:lcidtoname_downlevel.obj
 0002:00003318       ??_C@_15LJNHCMNK@?$AAc?$AAs?$AA?$AA@ 0000000180026318     libucrt:lcidtoname_downlevel.obj
 0002:00003320       ??_C@_15FOMCIDHG@?$AAd?$AAa?$AA?$AA@ 0000000180026320     libucrt:lcidtoname_downlevel.obj
 0002:00003328       ??_C@_15NBKABECB@?$AAd?$AAe?$AA?$AA@ 0000000180026328     libucrt:lcidtoname_downlevel.obj
 0002:00003330       ??_C@_15GHPEIIAO@?$AAe?$AAl?$AA?$AA@ 0000000180026330     libucrt:lcidtoname_downlevel.obj
 0002:00003338       ??_C@_15MNPNEAIF@?$AAe?$AAn?$AA?$AA@ 0000000180026338     libucrt:lcidtoname_downlevel.obj
 0002:00003340       ??_C@_15GPIOMPMH@?$AAe?$AAs?$AA?$AA@ 0000000180026340     libucrt:lcidtoname_downlevel.obj
 0002:00003348       ??_C@_15NGLOAKJC@?$AAf?$AAi?$AA?$AA@ 0000000180026348     libucrt:lcidtoname_downlevel.obj
 0002:00003350       ??_C@_15FBKGNKAM@?$AAf?$AAr?$AA?$AA@ 0000000180026350     libucrt:lcidtoname_downlevel.obj
 0002:00003358       ??_C@_15KGGCNEFK@?$AAh?$AAe?$AA?$AA@ 0000000180026358     libucrt:lcidtoname_downlevel.obj
 0002:00003360       ??_C@_15PGHLIDMF@?$AAh?$AAu?$AA?$AA@ 0000000180026360     libucrt:lcidtoname_downlevel.obj
 0002:00003368       ??_C@_15BIEMAPLM@?$AAi?$AAs?$AA?$AA@ 0000000180026368     libucrt:lcidtoname_downlevel.obj
 0002:00003370       ??_C@_15IFJLDHAF@?$AAi?$AAt?$AA?$AA@ 0000000180026370     libucrt:lcidtoname_downlevel.obj
 0002:00003378       ??_C@_15GEMIOCAG@?$AAj?$AAa?$AA?$AA@ 0000000180026378     libucrt:lcidtoname_downlevel.obj
 0002:00003380       ??_C@_15EPELEGJA@?$AAk?$AAo?$AA?$AA@ 0000000180026380     libucrt:lcidtoname_downlevel.obj
 0002:00003388       ??_C@_15NDDHIMN@?$AAn?$AAl?$AA?$AA@ 0000000180026388     libucrt:lcidtoname_downlevel.obj
 0002:00003390       ??_C@_15BPIGNHCD@?$AAn?$AAo?$AA?$AA@ 0000000180026390     libucrt:lcidtoname_downlevel.obj
 0002:00003398       ??_C@_15DEOPBLCG@?$AAp?$AAl?$AA?$AA@ 0000000180026398     libucrt:lcidtoname_downlevel.obj
 0002:000033a0       ??_C@_15KBECGEFG@?$AAp?$AAt?$AA?$AA@ 00000001800263a0     libucrt:lcidtoname_downlevel.obj
 0002:000033a8       ??_C@_15GLJCBFMD@?$AAr?$AAo?$AA?$AA@ 00000001800263a8     libucrt:lcidtoname_downlevel.obj
 0002:000033b0       ??_C@_15FEDGKCDI@?$AAr?$AAu?$AA?$AA@ 00000001800263b0     libucrt:lcidtoname_downlevel.obj
 0002:000033b8       ??_C@_15GLKMLLHM@?$AAh?$AAr?$AA?$AA@ 00000001800263b8     libucrt:lcidtoname_downlevel.obj
 0002:000033c0       ??_C@_15CPKMFBDB@?$AAs?$AAk?$AA?$AA@ 00000001800263c0     libucrt:lcidtoname_downlevel.obj
 0002:000033c8       ??_C@_15BAAIOGMK@?$AAs?$AAq?$AA?$AA@ 00000001800263c8     libucrt:lcidtoname_downlevel.obj
 0002:000033d0       ??_C@_15INNPNOHD@?$AAs?$AAv?$AA?$AA@ 00000001800263d0     libucrt:lcidtoname_downlevel.obj
 0002:000033d8       ??_C@_15CABMMOGH@?$AAt?$AAh?$AA?$AA@ 00000001800263d8     libucrt:lcidtoname_downlevel.obj
 0002:000033e0       ??_C@_15BPLIHJJM@?$AAt?$AAr?$AA?$AA@ 00000001800263e0     libucrt:lcidtoname_downlevel.obj
 0002:000033e8       ??_C@_15NEOEKKDJ@?$AAu?$AAr?$AA?$AA@ 00000001800263e8     libucrt:lcidtoname_downlevel.obj
 0002:000033f0       ??_C@_15NFICGAJK@?$AAi?$AAd?$AA?$AA@ 00000001800263f0     libucrt:lcidtoname_downlevel.obj
 0002:000033f8       ??_C@_15HPJPHDM@?$AAb?$AAe?$AA?$AA@ 00000001800263f8     libucrt:lcidtoname_downlevel.obj
 0002:00003400       ??_C@_15LCHLGJII@?$AAs?$AAl?$AA?$AA@ 0000000180026400     libucrt:lcidtoname_downlevel.obj
 0002:00003408       ??_C@_15PCFJPHHO@?$AAe?$AAt?$AA?$AA@ 0000000180026408     libucrt:lcidtoname_downlevel.obj
 0002:00003410       ??_C@_15HPFPGODN@?$AAl?$AAv?$AA?$AA@ 0000000180026410     libucrt:lcidtoname_downlevel.obj
 0002:00003418       ??_C@_15NFFGKGLG@?$AAl?$AAt?$AA?$AA@ 0000000180026418     libucrt:lcidtoname_downlevel.obj
 0002:00003420       ??_C@_15BDAKCCHN@?$AAf?$AAa?$AA?$AA@ 0000000180026420     libucrt:lcidtoname_downlevel.obj
 0002:00003428       ??_C@_15NFGIAIAJ@?$AAv?$AAi?$AA?$AA@ 0000000180026428     libucrt:lcidtoname_downlevel.obj
 0002:00003430       ??_C@_15LMKNDMHN@?$AAh?$AAy?$AA?$AA@ 0000000180026430     libucrt:lcidtoname_downlevel.obj
 0002:00003438       ??_C@_15IJBHMCFL@?$AAa?$AAz?$AA?$AA@ 0000000180026438     libucrt:lcidtoname_downlevel.obj
 0002:00003440       ??_C@_15EKOFJABL@?$AAe?$AAu?$AA?$AA@ 0000000180026440     libucrt:lcidtoname_downlevel.obj
 0002:00003448       ??_C@_15BGHADCNK@?$AAm?$AAk?$AA?$AA@ 0000000180026448     libucrt:lcidtoname_downlevel.obj
 0002:00003450       ??_C@_15JDNICKHM@?$AAa?$AAf?$AA?$AA@ 0000000180026450     libucrt:lcidtoname_downlevel.obj
 0002:00003458       ??_C@_15KPJEDBKD@?$AAk?$AAa?$AA?$AA@ 0000000180026458     libucrt:lcidtoname_downlevel.obj
 0002:00003460       ??_C@_15PDNFFFEO@?$AAf?$AAo?$AA?$AA@ 0000000180026460     libucrt:lcidtoname_downlevel.obj
 0002:00003468       ??_C@_15OMLEGLOC@?$AAh?$AAi?$AA?$AA@ 0000000180026468     libucrt:lcidtoname_downlevel.obj
 0002:00003470       ??_C@_15IDNNENKK@?$AAm?$AAs?$AA?$AA@ 0000000180026470     libucrt:lcidtoname_downlevel.obj
 0002:00003478       ??_C@_15MACJNBMH@?$AAk?$AAk?$AA?$AA@ 0000000180026478     libucrt:lcidtoname_downlevel.obj
 0002:00003480       ??_C@_15DKDJEOND@?$AAk?$AAy?$AA?$AA@ 0000000180026480     libucrt:lcidtoname_downlevel.obj
 0002:00003488       ??_C@_15DFGDLJBG@?$AAs?$AAw?$AA?$AA@ 0000000180026488     libucrt:lcidtoname_downlevel.obj
 0002:00003490       ??_C@_15BBFAICNG@?$AAu?$AAz?$AA?$AA@ 0000000180026490     libucrt:lcidtoname_downlevel.obj
 0002:00003498       ??_C@_15DKNDCGEA@?$AAt?$AAt?$AA?$AA@ 0000000180026498     libucrt:lcidtoname_downlevel.obj
 0002:000034a0       ??_C@_15MGIFMDPL@?$AAp?$AAa?$AA?$AA@ 00000001800264a0     libucrt:lcidtoname_downlevel.obj
 0002:000034a8       ??_C@_15HCNDBBA@?$AAg?$AAu?$AA?$AA@ 00000001800264a8     libucrt:lcidtoname_downlevel.obj
 0002:000034b0       ??_C@_15FNBEIBON@?$AAt?$AAa?$AA?$AA@ 00000001800264b0     libucrt:lcidtoname_downlevel.obj
 0002:000034b8       ??_C@_15NCHGBGLK@?$AAt?$AAe?$AA?$AA@ 00000001800264b8     libucrt:lcidtoname_downlevel.obj
 0002:000034c0       ??_C@_15PHPHCBPF@?$AAk?$AAn?$AA?$AA@ 00000001800264c0     libucrt:lcidtoname_downlevel.obj
 0002:000034c8       ??_C@_15DLGBCKMP@?$AAm?$AAr?$AA?$AA@ 00000001800264c8     libucrt:lcidtoname_downlevel.obj
 0002:000034d0       ??_C@_15EABBLBFF@?$AAs?$AAa?$AA?$AA@ 00000001800264d0     libucrt:lcidtoname_downlevel.obj
 0002:000034d8       ??_C@_15CBKOMCOI@?$AAm?$AAn?$AA?$AA@ 00000001800264d8     libucrt:lcidtoname_downlevel.obj
 0002:000034e0       ??_C@_15CKDMCJAF@?$AAg?$AAl?$AA?$AA@ 00000001800264e0     libucrt:lcidtoname_downlevel.obj
 0002:000034e8       ??_C@_17CNJFBPG@?$AAk?$AAo?$AAk?$AA?$AA@ 00000001800264e8     libucrt:lcidtoname_downlevel.obj
 0002:000034f0       ??_C@_17FFBJICPL@?$AAs?$AAy?$AAr?$AA?$AA@ 00000001800264f0     libucrt:lcidtoname_downlevel.obj
 0002:000034f8       ??_C@_17KPNDCPAF@?$AAd?$AAi?$AAv?$AA?$AA@ 00000001800264f8     libucrt:lcidtoname_downlevel.obj
 0002:00003500       ??_C@_11LOCGONAA@?$AA?$AA@ 0000000180026500     libucrt:lcidtoname_downlevel.obj
 0002:00003508       ??_C@_1M@OKAHONE@?$AAa?$AAr?$AA?9?$AAS?$AAA?$AA?$AA@ 0000000180026508     libucrt:lcidtoname_downlevel.obj
 0002:00003518       ??_C@_1M@FFFIGIGK@?$AAb?$AAg?$AA?9?$AAB?$AAG?$AA?$AA@ 0000000180026518     libucrt:lcidtoname_downlevel.obj
 0002:00003528       ??_C@_1M@BJNKEDC@?$AAc?$AAa?$AA?9?$AAE?$AAS?$AA?$AA@ 0000000180026528     libucrt:lcidtoname_downlevel.obj
 0002:00003538       ??_C@_1M@IJJHFJHA@?$AAc?$AAs?$AA?9?$AAC?$AAZ?$AA?$AA@ 0000000180026538     libucrt:lcidtoname_downlevel.obj
 0002:00003548       ??_C@_1M@CLPEOBGI@?$AAd?$AAa?$AA?9?$AAD?$AAK?$AA?$AA@ 0000000180026548     libucrt:lcidtoname_downlevel.obj
 0002:00003558       ??_C@_1M@MCMADGCB@?$AAd?$AAe?$AA?9?$AAD?$AAE?$AA?$AA@ 0000000180026558     libucrt:lcidtoname_downlevel.obj
 0002:00003568       ??_C@_1M@OOCKEMAM@?$AAe?$AAl?$AA?9?$AAG?$AAR?$AA?$AA@ 0000000180026568     libucrt:lcidtoname_downlevel.obj
 0002:00003578       ??_C@_1M@DDNJFGID@?$AAf?$AAi?$AA?9?$AAF?$AAI?$AA?$AA@ 0000000180026578     libucrt:lcidtoname_downlevel.obj
 0002:00003588       ??_C@_1M@GLIPPMAC@?$AAf?$AAr?$AA?9?$AAF?$AAR?$AA?$AA@ 0000000180026588     libucrt:lcidtoname_downlevel.obj
 0002:00003598       ??_C@_1M@GFMCHPE@?$AAh?$AAe?$AA?9?$AAI?$AAL?$AA?$AA@ 0000000180026598     libucrt:lcidtoname_downlevel.obj
 0002:000035a8       ??_C@_1M@MHLPGNKM@?$AAh?$AAu?$AA?9?$AAH?$AAU?$AA?$AA@ 00000001800265a8     libucrt:lcidtoname_downlevel.obj
 0002:000035b8       ??_C@_1M@LPDDNNPN@?$AAi?$AAs?$AA?9?$AAI?$AAS?$AA?$AA@ 00000001800265b8     libucrt:lcidtoname_downlevel.obj
 0002:000035c8       ??_C@_1M@MADIPODN@?$AAi?$AAt?$AA?9?$AAI?$AAT?$AA?$AA@ 00000001800265c8     libucrt:lcidtoname_downlevel.obj
 0002:000035d8       ??_C@_1M@IHBJJGG@?$AAn?$AAl?$AA?9?$AAN?$AAL?$AA?$AA@ 00000001800265d8     libucrt:lcidtoname_downlevel.obj
 0002:000035e8       ??_C@_1M@EANAGDL@?$AAn?$AAb?$AA?9?$AAN?$AAO?$AA?$AA@ 00000001800265e8     libucrt:lcidtoname_downlevel.obj
 0002:000035f8       ??_C@_1M@NEIEMEGP@?$AAp?$AAl?$AA?9?$AAP?$AAL?$AA?$AA@ 00000001800265f8     libucrt:lcidtoname_downlevel.obj
 0002:00003608       ??_C@_1M@BOCFIGEP@?$AAp?$AAt?$AA?9?$AAB?$AAR?$AA?$AA@ 0000000180026608     libucrt:lcidtoname_downlevel.obj
 0002:00003618       ??_C@_1M@IMPFOPBG@?$AAr?$AAo?$AA?9?$AAR?$AAO?$AA?$AA@ 0000000180026618     libucrt:lcidtoname_downlevel.obj
 0002:00003628       ??_C@_1M@IDNNEJMM@?$AAr?$AAu?$AA?9?$AAR?$AAU?$AA?$AA@ 0000000180026628     libucrt:lcidtoname_downlevel.obj
 0002:00003638       ??_C@_1M@LILEEOGM@?$AAh?$AAr?$AA?9?$AAH?$AAR?$AA?$AA@ 0000000180026638     libucrt:lcidtoname_downlevel.obj
 0002:00003648       ??_C@_1M@FKIFEHPB@?$AAs?$AAk?$AA?9?$AAS?$AAK?$AA?$AA@ 0000000180026648     libucrt:lcidtoname_downlevel.obj
 0002:00003658       ??_C@_1M@LJMAMNPJ@?$AAs?$AAq?$AA?9?$AAA?$AAL?$AA?$AA@ 0000000180026658     libucrt:lcidtoname_downlevel.obj
 0002:00003668       ??_C@_1M@GIAKDKJK@?$AAs?$AAv?$AA?9?$AAS?$AAE?$AA?$AA@ 0000000180026668     libucrt:lcidtoname_downlevel.obj
 0002:00003678       ??_C@_1M@MKJKIKCL@?$AAt?$AAh?$AA?9?$AAT?$AAH?$AA?$AA@ 0000000180026678     libucrt:lcidtoname_downlevel.obj
 0002:00003688       ??_C@_1M@MFLCCMPB@?$AAt?$AAr?$AA?9?$AAT?$AAR?$AA?$AA@ 0000000180026688     libucrt:lcidtoname_downlevel.obj
 0002:00003698       ??_C@_1M@OIJHDKJN@?$AAu?$AAr?$AA?9?$AAP?$AAK?$AA?$AA@ 0000000180026698     libucrt:lcidtoname_downlevel.obj
 0002:000036a8       ??_C@_1M@LHIPCIEK@?$AAi?$AAd?$AA?9?$AAI?$AAD?$AA?$AA@ 00000001800266a8     libucrt:lcidtoname_downlevel.obj
 0002:000036b8       ??_C@_1M@MFMOBGI@?$AAu?$AAk?$AA?9?$AAU?$AAA?$AA?$AA@ 00000001800266b8     libucrt:lcidtoname_downlevel.obj
 0002:000036c8       ??_C@_1M@OBGLJIPL@?$AAb?$AAe?$AA?9?$AAB?$AAY?$AA?$AA@ 00000001800266c8     libucrt:lcidtoname_downlevel.obj
 0002:000036d8       ??_C@_1M@BCFAJEAD@?$AAs?$AAl?$AA?9?$AAS?$AAI?$AA?$AA@ 00000001800266d8     libucrt:lcidtoname_downlevel.obj
 0002:000036e8       ??_C@_1M@FKFFEDDN@?$AAe?$AAt?$AA?9?$AAE?$AAE?$AA?$AA@ 00000001800266e8     libucrt:lcidtoname_downlevel.obj
 0002:000036f8       ??_C@_1M@KGKKAACI@?$AAl?$AAv?$AA?9?$AAL?$AAV?$AA?$AA@ 00000001800266f8     libucrt:lcidtoname_downlevel.obj
 0002:00003708       ??_C@_1M@IFGBIJO@?$AAl?$AAt?$AA?9?$AAL?$AAT?$AA?$AA@ 0000000180026708     libucrt:lcidtoname_downlevel.obj
 0002:00003718       ??_C@_1M@FGEAHEDM@?$AAf?$AAa?$AA?9?$AAI?$AAR?$AA?$AA@ 0000000180026718     libucrt:lcidtoname_downlevel.obj
 0002:00003728       ??_C@_1M@KBMAIBFN@?$AAv?$AAi?$AA?9?$AAV?$AAN?$AA?$AA@ 0000000180026728     libucrt:lcidtoname_downlevel.obj
 0002:00003738       ??_C@_1M@GPCBKDJK@?$AAh?$AAy?$AA?9?$AAA?$AAM?$AA?$AA@ 0000000180026738     libucrt:lcidtoname_downlevel.obj
 0002:00003748       ??_C@_1BG@BECMDDJB@?$AAa?$AAz?$AA?9?$AAA?$AAZ?$AA?9?$AAL?$AAa?$AAt?$AAn?$AA?$AA@ 0000000180026748     libucrt:lcidtoname_downlevel.obj
 0002:00003760       ??_C@_1M@MAOFCAEA@?$AAe?$AAu?$AA?9?$AAE?$AAS?$AA?$AA@ 0000000180026760     libucrt:lcidtoname_downlevel.obj
 0002:00003770       ??_C@_1M@IGHABKPI@?$AAm?$AAk?$AA?9?$AAM?$AAK?$AA?$AA@ 0000000180026770     libucrt:lcidtoname_downlevel.obj
 0002:00003780       ??_C@_1M@IAIGNEJG@?$AAt?$AAn?$AA?9?$AAZ?$AAA?$AA?$AA@ 0000000180026780     libucrt:lcidtoname_downlevel.obj
 0002:00003790       ??_C@_1M@IIJCOJFA@?$AAx?$AAh?$AA?9?$AAZ?$AAA?$AA?$AA@ 0000000180026790     libucrt:lcidtoname_downlevel.obj
 0002:000037a0       ??_C@_1M@LGPJHNJH@?$AAz?$AAu?$AA?9?$AAZ?$AAA?$AA?$AA@ 00000001800267a0     libucrt:lcidtoname_downlevel.obj
 0002:000037b0       ??_C@_1M@HOKAOIO@?$AAa?$AAf?$AA?9?$AAZ?$AAA?$AA?$AA@ 00000001800267b0     libucrt:lcidtoname_downlevel.obj
 0002:000037c0       ??_C@_1M@DPCLHLIE@?$AAk?$AAa?$AA?9?$AAG?$AAE?$AA?$AA@ 00000001800267c0     libucrt:lcidtoname_downlevel.obj
 0002:000037d0       ??_C@_1M@BLKMHJBI@?$AAf?$AAo?$AA?9?$AAF?$AAO?$AA?$AA@ 00000001800267d0     libucrt:lcidtoname_downlevel.obj
 0002:000037e0       ??_C@_1M@LGGJAPPB@?$AAh?$AAi?$AA?9?$AAI?$AAN?$AA?$AA@ 00000001800267e0     libucrt:lcidtoname_downlevel.obj
 0002:000037f0       ??_C@_1M@FIKPIHFE@?$AAm?$AAt?$AA?9?$AAM?$AAT?$AA?$AA@ 00000001800267f0     libucrt:lcidtoname_downlevel.obj
 0002:00003800       ??_C@_1M@HEGGPBFA@?$AAs?$AAe?$AA?9?$AAN?$AAO?$AA?$AA@ 0000000180026800     libucrt:lcidtoname_downlevel.obj
 0002:00003810       ??_C@_1M@EIBJEEPA@?$AAm?$AAs?$AA?9?$AAM?$AAY?$AA?$AA@ 0000000180026810     libucrt:lcidtoname_downlevel.obj
 0002:00003820       ??_C@_1M@FHLBGMPP@?$AAk?$AAk?$AA?9?$AAK?$AAZ?$AA?$AA@ 0000000180026820     libucrt:lcidtoname_downlevel.obj
 0002:00003830       ??_C@_1M@NGJJLCGI@?$AAk?$AAy?$AA?9?$AAK?$AAG?$AA?$AA@ 0000000180026830     libucrt:lcidtoname_downlevel.obj
 0002:00003840       ??_C@_1M@GIENNBFC@?$AAs?$AAw?$AA?9?$AAK?$AAE?$AA?$AA@ 0000000180026840     libucrt:lcidtoname_downlevel.obj
 0002:00003850       ??_C@_1BG@NDGMJIMJ@?$AAu?$AAz?$AA?9?$AAU?$AAZ?$AA?9?$AAL?$AAa?$AAt?$AAn?$AA?$AA@ 0000000180026850     libucrt:lcidtoname_downlevel.obj
 0002:00003868       ??_C@_1M@IDCCIHBC@?$AAt?$AAt?$AA?9?$AAR?$AAU?$AA?$AA@ 0000000180026868     libucrt:lcidtoname_downlevel.obj
 0002:00003878       ??_C@_1M@LOICPMOJ@?$AAb?$AAn?$AA?9?$AAI?$AAN?$AA?$AA@ 0000000180026878     libucrt:lcidtoname_downlevel.obj
 0002:00003888       ??_C@_1M@KPKKNEAH@?$AAp?$AAa?$AA?9?$AAI?$AAN?$AA?$AA@ 0000000180026888     libucrt:lcidtoname_downlevel.obj
 0002:00003898       ??_C@_1M@PJGPPBOG@?$AAg?$AAu?$AA?9?$AAI?$AAN?$AA?$AA@ 0000000180026898     libucrt:lcidtoname_downlevel.obj
 0002:000038a8       ??_C@_1M@KMKMOPHI@?$AAt?$AAa?$AA?9?$AAI?$AAN?$AA?$AA@ 00000001800268a8     libucrt:lcidtoname_downlevel.obj
 0002:000038b8       ??_C@_1M@KFEHEPAC@?$AAt?$AAe?$AA?9?$AAI?$AAN?$AA?$AA@ 00000001800268b8     libucrt:lcidtoname_downlevel.obj
 0002:000038c8       ??_C@_1M@CDCLMGHI@?$AAk?$AAn?$AA?9?$AAI?$AAN?$AA?$AA@ 00000001800268c8     libucrt:lcidtoname_downlevel.obj
 0002:000038d8       ??_C@_1M@MIODLDKF@?$AAm?$AAl?$AA?9?$AAI?$AAN?$AA?$AA@ 00000001800268d8     libucrt:lcidtoname_downlevel.obj
 0002:000038e8       ??_C@_1M@PBIEACPO@?$AAm?$AAr?$AA?9?$AAI?$AAN?$AA?$AA@ 00000001800268e8     libucrt:lcidtoname_downlevel.obj
 0002:000038f8       ??_C@_1M@NIDEAGPH@?$AAs?$AAa?$AA?9?$AAI?$AAN?$AA?$AA@ 00000001800268f8     libucrt:lcidtoname_downlevel.obj
 0002:00003908       ??_C@_1M@FHIHCBIO@?$AAm?$AAn?$AA?9?$AAM?$AAN?$AA?$AA@ 0000000180026908     libucrt:lcidtoname_downlevel.obj
 0002:00003918       ??_C@_1M@JAIJPENP@?$AAc?$AAy?$AA?9?$AAG?$AAB?$AA?$AA@ 0000000180026918     libucrt:lcidtoname_downlevel.obj
 0002:00003928       ??_C@_1M@PHGFBEPN@?$AAg?$AAl?$AA?9?$AAE?$AAS?$AA?$AA@ 0000000180026928     libucrt:lcidtoname_downlevel.obj
 0002:00003938       ??_C@_1O@KPIPDNCP@?$AAk?$AAo?$AAk?$AA?9?$AAI?$AAN?$AA?$AA@ 0000000180026938     libucrt:lcidtoname_downlevel.obj
 0002:00003948       ??_C@_1O@KNHJLDJA@?$AAs?$AAy?$AAr?$AA?9?$AAS?$AAY?$AA?$AA@ 0000000180026948     libucrt:lcidtoname_downlevel.obj
 0002:00003958       ??_C@_1O@MKEKBLAH@?$AAd?$AAi?$AAv?$AA?9?$AAM?$AAV?$AA?$AA@ 0000000180026958     libucrt:lcidtoname_downlevel.obj
 0002:00003968       ??_C@_1O@OHDCKDDF@?$AAq?$AAu?$AAz?$AA?9?$AAB?$AAO?$AA?$AA@ 0000000180026968     libucrt:lcidtoname_downlevel.obj
 0002:00003978       ??_C@_1M@LEPJNLFD@?$AAn?$AAs?$AA?9?$AAZ?$AAA?$AA?$AA@ 0000000180026978     libucrt:lcidtoname_downlevel.obj
 0002:00003988       ??_C@_1M@OMLEIIJB@?$AAm?$AAi?$AA?9?$AAN?$AAZ?$AA?$AA@ 0000000180026988     libucrt:lcidtoname_downlevel.obj
 0002:00003998       ??_C@_1M@PMPEAILG@?$AAa?$AAr?$AA?9?$AAI?$AAQ?$AA?$AA@ 0000000180026998     libucrt:lcidtoname_downlevel.obj
 0002:000039a8       ??_C@_1M@CNKPNOEE@?$AAd?$AAe?$AA?9?$AAC?$AAH?$AA?$AA@ 00000001800269a8     libucrt:lcidtoname_downlevel.obj
 0002:000039b8       ??_C@_1M@LKMGMLKO@?$AAe?$AAn?$AA?9?$AAG?$AAB?$AA?$AA@ 00000001800269b8     libucrt:lcidtoname_downlevel.obj
 0002:000039c8       ??_C@_1M@PGKJFFGL@?$AAe?$AAs?$AA?9?$AAM?$AAX?$AA?$AA@ 00000001800269c8     libucrt:lcidtoname_downlevel.obj
 0002:000039d8       ??_C@_1M@DNNANBDC@?$AAf?$AAr?$AA?9?$AAB?$AAE?$AA?$AA@ 00000001800269d8     libucrt:lcidtoname_downlevel.obj
 0002:000039e8       ??_C@_1M@HLGMDFHM@?$AAi?$AAt?$AA?9?$AAC?$AAH?$AA?$AA@ 00000001800269e8     libucrt:lcidtoname_downlevel.obj
 0002:000039f8       ??_C@_1M@CLLBGJH@?$AAn?$AAl?$AA?9?$AAB?$AAE?$AA?$AA@ 00000001800269f8     libucrt:lcidtoname_downlevel.obj
 0002:00003a08       ??_C@_1M@BODBOGLF@?$AAn?$AAn?$AA?9?$AAN?$AAO?$AA?$AA@ 0000000180026a08     libucrt:lcidtoname_downlevel.obj
 0002:00003a18       ??_C@_1M@HFFAHKAD@?$AAp?$AAt?$AA?9?$AAP?$AAT?$AA?$AA@ 0000000180026a18     libucrt:lcidtoname_downlevel.obj
 0002:00003a28       ??_C@_1BG@LNOAKHIE@?$AAs?$AAr?$AA?9?$AAS?$AAP?$AA?9?$AAL?$AAa?$AAt?$AAn?$AA?$AA@ 0000000180026a28     libucrt:lcidtoname_downlevel.obj
 0002:00003a40       ??_C@_1M@HBMHBGAK@?$AAs?$AAv?$AA?9?$AAF?$AAI?$AA?$AA@ 0000000180026a40     libucrt:lcidtoname_downlevel.obj
 0002:00003a50       ??_C@_1BG@DGCJGJBE@?$AAa?$AAz?$AA?9?$AAA?$AAZ?$AA?9?$AAC?$AAy?$AAr?$AAl?$AA?$AA@ 0000000180026a50     libucrt:lcidtoname_downlevel.obj
 0002:00003a68       ??_C@_1M@KEJDAAHB@?$AAs?$AAe?$AA?9?$AAS?$AAE?$AA?$AA@ 0000000180026a68     libucrt:lcidtoname_downlevel.obj
 0002:00003a78       ??_C@_1M@HEIBJJAD@?$AAm?$AAs?$AA?9?$AAB?$AAN?$AA?$AA@ 0000000180026a78     libucrt:lcidtoname_downlevel.obj
 0002:00003a88       ??_C@_1BG@PBGJMCEM@?$AAu?$AAz?$AA?9?$AAU?$AAZ?$AA?9?$AAC?$AAy?$AAr?$AAl?$AA?$AA@ 0000000180026a88     libucrt:lcidtoname_downlevel.obj
 0002:00003aa0       ??_C@_1O@LAOBCMDF@?$AAq?$AAu?$AAz?$AA?9?$AAE?$AAC?$AA?$AA@ 0000000180026aa0     libucrt:lcidtoname_downlevel.obj
 0002:00003ab0       ??_C@_1M@POEEMAIO@?$AAa?$AAr?$AA?9?$AAE?$AAG?$AA?$AA@ 0000000180026ab0     libucrt:lcidtoname_downlevel.obj
 0002:00003ac0       ??_C@_1M@EFAKDEDL@?$AAz?$AAh?$AA?9?$AAH?$AAK?$AA?$AA@ 0000000180026ac0     libucrt:lcidtoname_downlevel.obj
 0002:00003ad0       ??_C@_1M@HKKIJHGI@?$AAd?$AAe?$AA?9?$AAA?$AAT?$AA?$AA@ 0000000180026ad0     libucrt:lcidtoname_downlevel.obj
 0002:00003ae0       ??_C@_1M@KBFBEHJF@?$AAe?$AAn?$AA?9?$AAA?$AAU?$AA?$AA@ 0000000180026ae0     libucrt:lcidtoname_downlevel.obj
 0002:00003af0       ??_C@_1M@MNPLFAAH@?$AAe?$AAs?$AA?9?$AAE?$AAS?$AA?$AA@ 0000000180026af0     libucrt:lcidtoname_downlevel.obj
 0002:00003b00       ??_C@_1M@HJOOJFMA@?$AAf?$AAr?$AA?9?$AAC?$AAA?$AA?$AA@ 0000000180026b00     libucrt:lcidtoname_downlevel.obj
 0002:00003b10       ??_C@_1BG@JPOFPNAB@?$AAs?$AAr?$AA?9?$AAS?$AAP?$AA?9?$AAC?$AAy?$AAr?$AAl?$AA?$AA@ 0000000180026b10     libucrt:lcidtoname_downlevel.obj
 0002:00003b28       ??_C@_1M@LNFOCMOB@?$AAs?$AAe?$AA?9?$AAF?$AAI?$AA?$AA@ 0000000180026b28     libucrt:lcidtoname_downlevel.obj
 0002:00003b38       ??_C@_1O@MGJBOAMB@?$AAq?$AAu?$AAz?$AA?9?$AAP?$AAE?$AA?$AA@ 0000000180026b38     libucrt:lcidtoname_downlevel.obj
 0002:00003b48       ??_C@_1M@GJINLBOK@?$AAa?$AAr?$AA?9?$AAL?$AAY?$AA?$AA@ 0000000180026b48     libucrt:lcidtoname_downlevel.obj
 0002:00003b58       ??_C@_1M@GGMNHJNL@?$AAz?$AAh?$AA?9?$AAS?$AAG?$AA?$AA@ 0000000180026b58     libucrt:lcidtoname_downlevel.obj
 0002:00003b68       ??_C@_1M@HOIKODND@?$AAd?$AAe?$AA?9?$AAL?$AAU?$AA?$AA@ 0000000180026b68     libucrt:lcidtoname_downlevel.obj
 0002:00003b78       ??_C@_1M@DDOCCGFG@?$AAe?$AAn?$AA?9?$AAC?$AAA?$AA?$AA@ 0000000180026b78     libucrt:lcidtoname_downlevel.obj
 0002:00003b88       ??_C@_1M@BNOEMJLF@?$AAe?$AAs?$AA?9?$AAG?$AAT?$AA?$AA@ 0000000180026b88     libucrt:lcidtoname_downlevel.obj
 0002:00003b98       ??_C@_1M@EOGNKEK@?$AAf?$AAr?$AA?9?$AAC?$AAH?$AA?$AA@ 0000000180026b98     libucrt:lcidtoname_downlevel.obj
 0002:00003ba8       ??_C@_1M@FLIDJFHL@?$AAh?$AAr?$AA?9?$AAB?$AAA?$AA?$AA@ 0000000180026ba8     libucrt:lcidtoname_downlevel.obj
 0002:00003bb8       ??_C@_1O@FMCELNAJ@?$AAs?$AAm?$AAj?$AA?9?$AAN?$AAO?$AA?$AA@ 0000000180026bb8     libucrt:lcidtoname_downlevel.obj
 0002:00003bc8       ??_C@_1M@JHGLJMGJ@?$AAa?$AAr?$AA?9?$AAD?$AAZ?$AA?$AA@ 0000000180026bc8     libucrt:lcidtoname_downlevel.obj
 0002:00003bd8       ??_C@_1M@JKKFDCNP@?$AAz?$AAh?$AA?9?$AAM?$AAO?$AA?$AA@ 0000000180026bd8     libucrt:lcidtoname_downlevel.obj
 0002:00003be8       ??_C@_1M@GEEFALPE@?$AAd?$AAe?$AA?9?$AAL?$AAI?$AA?$AA@ 0000000180026be8     libucrt:lcidtoname_downlevel.obj
 0002:00003bf8       ??_C@_1M@IGEOFBG@?$AAe?$AAn?$AA?9?$AAN?$AAZ?$AA?$AA@ 0000000180026bf8     libucrt:lcidtoname_downlevel.obj
 0002:00003c08       ??_C@_1M@KDBONEHP@?$AAe?$AAs?$AA?9?$AAC?$AAR?$AA?$AA@ 0000000180026c08     libucrt:lcidtoname_downlevel.obj
 0002:00003c18       ??_C@_1M@FHMDOHNN@?$AAf?$AAr?$AA?9?$AAL?$AAU?$AA?$AA@ 0000000180026c18     libucrt:lcidtoname_downlevel.obj
 0002:00003c28       ??_C@_1BG@NFKKMAFG@?$AAb?$AAs?$AA?9?$AAB?$AAA?$AA?9?$AAL?$AAa?$AAt?$AAn?$AA?$AA@ 0000000180026c28     libucrt:lcidtoname_downlevel.obj
 0002:00003c40       ??_C@_1O@IMNBEMCI@?$AAs?$AAm?$AAj?$AA?9?$AAS?$AAE?$AA?$AA@ 0000000180026c40     libucrt:lcidtoname_downlevel.obj
 0002:00003c50       ??_C@_1M@DHHMBNDP@?$AAa?$AAr?$AA?9?$AAM?$AAA?$AA?$AA@ 0000000180026c50     libucrt:lcidtoname_downlevel.obj
 0002:00003c60       ??_C@_1M@BNBLJCGH@?$AAe?$AAn?$AA?9?$AAI?$AAE?$AA?$AA@ 0000000180026c60     libucrt:lcidtoname_downlevel.obj
 0002:00003c70       ??_C@_1M@GEPAFMDL@?$AAe?$AAs?$AA?9?$AAP?$AAA?$AA?$AA@ 0000000180026c70     libucrt:lcidtoname_downlevel.obj
 0002:00003c80       ??_C@_1M@OJONDMDL@?$AAf?$AAr?$AA?9?$AAM?$AAC?$AA?$AA@ 0000000180026c80     libucrt:lcidtoname_downlevel.obj
 0002:00003c90       ??_C@_1BG@OBCNFJB@?$AAs?$AAr?$AA?9?$AAB?$AAA?$AA?9?$AAL?$AAa?$AAt?$AAn?$AA?$AA@ 0000000180026c90     libucrt:lcidtoname_downlevel.obj
 0002:00003ca8       ??_C@_1O@KEMEEGPO@?$AAs?$AAm?$AAa?$AA?9?$AAN?$AAO?$AA?$AA@ 0000000180026ca8     libucrt:lcidtoname_downlevel.obj
 0002:00003cb8       ??_C@_1M@ELMGFODK@?$AAa?$AAr?$AA?9?$AAT?$AAN?$AA?$AA@ 0000000180026cb8     libucrt:lcidtoname_downlevel.obj
 0002:00003cc8       ??_C@_1M@BHDLHFAF@?$AAe?$AAn?$AA?9?$AAZ?$AAA?$AA?$AA@ 0000000180026cc8     libucrt:lcidtoname_downlevel.obj
 0002:00003cd8       ??_C@_1M@BMGIGLIF@?$AAe?$AAs?$AA?9?$AAD?$AAO?$AA?$AA@ 0000000180026cd8     libucrt:lcidtoname_downlevel.obj
 0002:00003ce8       ??_C@_1BG@CMBHIPBE@?$AAs?$AAr?$AA?9?$AAB?$AAA?$AA?9?$AAC?$AAy?$AAr?$AAl?$AA?$AA@ 0000000180026ce8     libucrt:lcidtoname_downlevel.obj
 0002:00003d00       ??_C@_1O@HEDBLHNP@?$AAs?$AAm?$AAa?$AA?9?$AAS?$AAE?$AA?$AA@ 0000000180026d00     libucrt:lcidtoname_downlevel.obj
 0002:00003d10       ??_C@_1M@DAGCADIM@?$AAa?$AAr?$AA?9?$AAO?$AAM?$AA?$AA@ 0000000180026d10     libucrt:lcidtoname_downlevel.obj
 0002:00003d20       ??_C@_1M@FODLMICG@?$AAe?$AAn?$AA?9?$AAJ?$AAM?$AA?$AA@ 0000000180026d20     libucrt:lcidtoname_downlevel.obj
 0002:00003d30       ??_C@_1M@DNMLCIHB@?$AAe?$AAs?$AA?9?$AAV?$AAE?$AA?$AA@ 0000000180026d30     libucrt:lcidtoname_downlevel.obj
 0002:00003d40       ??_C@_1O@EOKHMKJK@?$AAs?$AAm?$AAs?$AA?9?$AAF?$AAI?$AA?$AA@ 0000000180026d40     libucrt:lcidtoname_downlevel.obj
 0002:00003d50       ??_C@_1M@CAFJMKOF@?$AAa?$AAr?$AA?9?$AAY?$AAE?$AA?$AA@ 0000000180026d50     libucrt:lcidtoname_downlevel.obj
 0002:00003d60       ??_C@_1M@CBFHIJLI@?$AAe?$AAn?$AA?9?$AAC?$AAB?$AA?$AA@ 0000000180026d60     libucrt:lcidtoname_downlevel.obj
 0002:00003d70       ??_C@_1M@BGNFLDN@?$AAe?$AAs?$AA?9?$AAC?$AAO?$AA?$AA@ 0000000180026d70     libucrt:lcidtoname_downlevel.obj
 0002:00003d80       ??_C@_1O@JMPHMAMC@?$AAs?$AAm?$AAn?$AA?9?$AAF?$AAI?$AA?$AA@ 0000000180026d80     libucrt:lcidtoname_downlevel.obj
 0002:00003d90       ??_C@_1M@JLANABKE@?$AAa?$AAr?$AA?9?$AAS?$AAY?$AA?$AA@ 0000000180026d90     libucrt:lcidtoname_downlevel.obj
 0002:00003da0       ??_C@_1M@HPKGCFGN@?$AAe?$AAn?$AA?9?$AAB?$AAZ?$AA?$AA@ 0000000180026da0     libucrt:lcidtoname_downlevel.obj
 0002:00003db0       ??_C@_1M@OLJCMLGM@?$AAe?$AAs?$AA?9?$AAP?$AAE?$AA?$AA@ 0000000180026db0     libucrt:lcidtoname_downlevel.obj
 0002:00003dc0       ??_C@_1M@MKKGFKLE@?$AAa?$AAr?$AA?9?$AAJ?$AAO?$AA?$AA@ 0000000180026dc0     libucrt:lcidtoname_downlevel.obj
 0002:00003dd0       ??_C@_1M@EKPGLDNI@?$AAe?$AAn?$AA?9?$AAT?$AAT?$AA?$AA@ 0000000180026dd0     libucrt:lcidtoname_downlevel.obj
 0002:00003de0       ??_C@_1M@OONGHFHE@?$AAe?$AAs?$AA?9?$AAA?$AAR?$AA?$AA@ 0000000180026de0     libucrt:lcidtoname_downlevel.obj
 0002:00003df0       ??_C@_1M@OOJFGBHE@?$AAa?$AAr?$AA?9?$AAL?$AAB?$AA?$AA@ 0000000180026df0     libucrt:lcidtoname_downlevel.obj
 0002:00003e00       ??_C@_1M@GCEJHNEG@?$AAe?$AAn?$AA?9?$AAZ?$AAW?$AA?$AA@ 0000000180026e00     libucrt:lcidtoname_downlevel.obj
 0002:00003e10       ??_C@_1M@JNOCAHJI@?$AAe?$AAs?$AA?9?$AAE?$AAC?$AA?$AA@ 0000000180026e10     libucrt:lcidtoname_downlevel.obj
 0002:00003e20       ??_C@_1M@JEFHPGGB@?$AAa?$AAr?$AA?9?$AAK?$AAW?$AA?$AA@ 0000000180026e20     libucrt:lcidtoname_downlevel.obj
 0002:00003e30       ??_C@_1M@MLKIBJOJ@?$AAe?$AAn?$AA?9?$AAP?$AAH?$AA?$AA@ 0000000180026e30     libucrt:lcidtoname_downlevel.obj
 0002:00003e40       ??_C@_1M@BDNIPEND@?$AAe?$AAs?$AA?9?$AAC?$AAL?$AA?$AA@ 0000000180026e40     libucrt:lcidtoname_downlevel.obj
 0002:00003e50       ??_C@_1M@MPNMEKBD@?$AAa?$AAr?$AA?9?$AAA?$AAE?$AA?$AA@ 0000000180026e50     libucrt:lcidtoname_downlevel.obj
 0002:00003e60       ??_C@_1M@KBJALCPI@?$AAe?$AAs?$AA?9?$AAU?$AAY?$AA?$AA@ 0000000180026e60     libucrt:lcidtoname_downlevel.obj
 0002:00003e70       ??_C@_1M@LLCCOAGA@?$AAa?$AAr?$AA?9?$AAB?$AAH?$AA?$AA@ 0000000180026e70     libucrt:lcidtoname_downlevel.obj
 0002:00003e80       ??_C@_1M@PBFNCDEL@?$AAe?$AAs?$AA?9?$AAP?$AAY?$AA?$AA@ 0000000180026e80     libucrt:lcidtoname_downlevel.obj
 0002:00003e90       ??_C@_1M@EDGINPNP@?$AAa?$AAr?$AA?9?$AAQ?$AAA?$AA?$AA@ 0000000180026e90     libucrt:lcidtoname_downlevel.obj
 0002:00003ea0       ??_C@_1M@MKDBIIJI@?$AAe?$AAs?$AA?9?$AAB?$AAO?$AA?$AA@ 0000000180026ea0     libucrt:lcidtoname_downlevel.obj
 0002:00003eb0       ??_C@_1M@CPKKEBLD@?$AAe?$AAs?$AA?9?$AAS?$AAV?$AA?$AA@ 0000000180026eb0     libucrt:lcidtoname_downlevel.obj
 0002:00003ec0       ??_C@_1M@NDBGMMJL@?$AAe?$AAs?$AA?9?$AAH?$AAN?$AA?$AA@ 0000000180026ec0     libucrt:lcidtoname_downlevel.obj
 0002:00003ed0       ??_C@_1M@JIJIBHDP@?$AAe?$AAs?$AA?9?$AAN?$AAI?$AA?$AA@ 0000000180026ed0     libucrt:lcidtoname_downlevel.obj
 0002:00003ee0       ??_C@_1M@CGFMKEEK@?$AAe?$AAs?$AA?9?$AAP?$AAR?$AA?$AA@ 0000000180026ee0     libucrt:lcidtoname_downlevel.obj
 0002:00003ef0       ??_C@_1O@ICJHKIIK@?$AAz?$AAh?$AA?9?$AAC?$AAH?$AAT?$AA?$AA@ 0000000180026ef0     libucrt:lcidtoname_downlevel.obj
 0002:00003f00       ??_C@_15CLNEJCE@?$AAs?$AAr?$AA?$AA@ 0000000180026f00     libucrt:lcidtoname_downlevel.obj
 0002:00004d50       ??_C@_1M@KAHEKEIG@?$AAa?$AAf?$AA?9?$AAz?$AAa?$AA?$AA@ 0000000180027d50     libucrt:lcidtoname_downlevel.obj
 0002:00004d60       ??_C@_1M@GIECOABL@?$AAa?$AAr?$AA?9?$AAa?$AAe?$AA?$AA@ 0000000180027d60     libucrt:lcidtoname_downlevel.obj
 0002:00004d70       ??_C@_1M@BMLMEKGI@?$AAa?$AAr?$AA?9?$AAb?$AAh?$AA?$AA@ 0000000180027d70     libucrt:lcidtoname_downlevel.obj
 0002:00004d80       ??_C@_1M@DAPFDGGB@?$AAa?$AAr?$AA?9?$AAd?$AAz?$AA?$AA@ 0000000180027d80     libucrt:lcidtoname_downlevel.obj
 0002:00004d90       ??_C@_1M@FJNKGKIG@?$AAa?$AAr?$AA?9?$AAe?$AAg?$AA?$AA@ 0000000180027d90     libucrt:lcidtoname_downlevel.obj
 0002:00004da0       ??_C@_1M@FLGKKCLO@?$AAa?$AAr?$AA?9?$AAi?$AAq?$AA?$AA@ 0000000180027da0     libucrt:lcidtoname_downlevel.obj
 0002:00004db0       ??_C@_1M@GNDIPALM@?$AAa?$AAr?$AA?9?$AAj?$AAo?$AA?$AA@ 0000000180027db0     libucrt:lcidtoname_downlevel.obj
 0002:00004dc0       ??_C@_1M@DDMJFMGJ@?$AAa?$AAr?$AA?9?$AAk?$AAw?$AA?$AA@ 0000000180027dc0     libucrt:lcidtoname_downlevel.obj
 0002:00004dd0       ??_C@_1M@EJALMLHM@?$AAa?$AAr?$AA?9?$AAl?$AAb?$AA?$AA@ 0000000180027dd0     libucrt:lcidtoname_downlevel.obj
 0002:00004de0       ??_C@_1M@MOBDBLOC@?$AAa?$AAr?$AA?9?$AAl?$AAy?$AA?$AA@ 0000000180027de0     libucrt:lcidtoname_downlevel.obj
 0002:00004df0       ??_C@_1M@JAOCLHDH@?$AAa?$AAr?$AA?9?$AAm?$AAa?$AA?$AA@ 0000000180027df0     libucrt:lcidtoname_downlevel.obj
 0002:00004e00       ??_C@_1M@JHPMKJIE@?$AAa?$AAr?$AA?9?$AAo?$AAm?$AA?$AA@ 0000000180027e00     libucrt:lcidtoname_downlevel.obj
 0002:00004e10       ??_C@_1M@OEPGHFNH@?$AAa?$AAr?$AA?9?$AAq?$AAa?$AA?$AA@ 0000000180027e10     libucrt:lcidtoname_downlevel.obj
 0002:00004e20       ??_C@_1M@KJDONENM@?$AAa?$AAr?$AA?9?$AAs?$AAa?$AA?$AA@ 0000000180027e20     libucrt:lcidtoname_downlevel.obj
 0002:00004e30       ??_C@_1M@DMJDKLKM@?$AAa?$AAr?$AA?9?$AAs?$AAy?$AA?$AA@ 0000000180027e30     libucrt:lcidtoname_downlevel.obj
 0002:00004e40       ??_C@_1M@OMFIPEDC@?$AAa?$AAr?$AA?9?$AAt?$AAn?$AA?$AA@ 0000000180027e40     libucrt:lcidtoname_downlevel.obj
 0002:00004e50       ??_C@_1M@IHMHGAON@?$AAa?$AAr?$AA?9?$AAy?$AAe?$AA?$AA@ 0000000180027e50     libucrt:lcidtoname_downlevel.obj
 0002:00004e60       ??_C@_1BG@KDCPGJGB@?$AAa?$AAz?$AA?9?$AAa?$AAz?$AA?9?$AAc?$AAy?$AAr?$AAl?$AA?$AA@ 0000000180027e60     libucrt:lcidtoname_downlevel.obj
 0002:00004e78       ??_C@_1BG@IBCKDDOE@?$AAa?$AAz?$AA?9?$AAa?$AAz?$AA?9?$AAl?$AAa?$AAt?$AAn?$AA?$AA@ 0000000180027e78     libucrt:lcidtoname_downlevel.obj
 0002:00004e90       ??_C@_1M@EGPFDCPD@?$AAb?$AAe?$AA?9?$AAb?$AAy?$AA?$AA@ 0000000180027e90     libucrt:lcidtoname_downlevel.obj
 0002:00004ea0       ??_C@_1M@PCMGMCGC@?$AAb?$AAg?$AA?9?$AAb?$AAg?$AA?$AA@ 0000000180027ea0     libucrt:lcidtoname_downlevel.obj
 0002:00004eb0       ??_C@_1M@BJBMFGOB@?$AAb?$AAn?$AA?9?$AAi?$AAn?$AA?$AA@ 0000000180027eb0     libucrt:lcidtoname_downlevel.obj
 0002:00004ec0       ??_C@_1BG@EAKMMACD@?$AAb?$AAs?$AA?9?$AAb?$AAa?$AA?9?$AAl?$AAa?$AAt?$AAn?$AA?$AA@ 0000000180027ec0     libucrt:lcidtoname_downlevel.obj
 0002:00004ed8       ??_C@_1M@KGADAODK@?$AAc?$AAa?$AA?9?$AAe?$AAs?$AA?$AA@ 0000000180027ed8     libucrt:lcidtoname_downlevel.obj
 0002:00004ee8       ??_C@_1M@COAJPDHI@?$AAc?$AAs?$AA?9?$AAc?$AAz?$AA?$AA@ 0000000180027ee8     libucrt:lcidtoname_downlevel.obj
 0002:00004ef8       ??_C@_1M@DHBHFONH@?$AAc?$AAy?$AA?9?$AAg?$AAb?$AA?$AA@ 0000000180027ef8     libucrt:lcidtoname_downlevel.obj
 0002:00004f08       ??_C@_1M@IMGKELGA@?$AAd?$AAa?$AA?9?$AAd?$AAk?$AA?$AA@ 0000000180027f08     libucrt:lcidtoname_downlevel.obj
 0002:00004f18       ??_C@_1M@NNDGDNGA@?$AAd?$AAe?$AA?9?$AAa?$AAt?$AA?$AA@ 0000000180027f18     libucrt:lcidtoname_downlevel.obj
 0002:00004f28       ??_C@_1M@IKDBHEEM@?$AAd?$AAe?$AA?9?$AAc?$AAh?$AA?$AA@ 0000000180027f28     libucrt:lcidtoname_downlevel.obj
 0002:00004f38       ??_C@_1M@GFFOJMCJ@?$AAd?$AAe?$AA?9?$AAd?$AAe?$AA?$AA@ 0000000180027f38     libucrt:lcidtoname_downlevel.obj
 0002:00004f48       ??_C@_1M@MDNLKBPM@?$AAd?$AAe?$AA?9?$AAl?$AAi?$AA?$AA@ 0000000180027f48     libucrt:lcidtoname_downlevel.obj
 0002:00004f58       ??_C@_1M@NJBEEJNL@?$AAd?$AAe?$AA?9?$AAl?$AAu?$AA?$AA@ 0000000180027f58     libucrt:lcidtoname_downlevel.obj
 0002:00004f68       ??_C@_1O@GNNELBAP@?$AAd?$AAi?$AAv?$AA?9?$AAm?$AAv?$AA?$AA@ 0000000180027f68     libucrt:lcidtoname_downlevel.obj
 0002:00004f78       ??_C@_1M@EJLEOGAE@?$AAe?$AAl?$AA?9?$AAg?$AAr?$AA?$AA@ 0000000180027f78     libucrt:lcidtoname_downlevel.obj
 0002:00004f88       ??_C@_1M@GMPONJN@?$AAe?$AAn?$AA?9?$AAa?$AAu?$AA?$AA@ 0000000180027f88     libucrt:lcidtoname_downlevel.obj
 0002:00004f98       ??_C@_1M@NIDIIPGF@?$AAe?$AAn?$AA?9?$AAb?$AAz?$AA?$AA@ 0000000180027f98     libucrt:lcidtoname_downlevel.obj
 0002:00004fa8       ??_C@_1M@JEHMIMFO@?$AAe?$AAn?$AA?9?$AAc?$AAa?$AA?$AA@ 0000000180027fa8     libucrt:lcidtoname_downlevel.obj
 0002:00004fb8       ??_C@_1M@IGMJCDLA@?$AAe?$AAn?$AA?9?$AAc?$AAb?$AA?$AA@ 0000000180027fb8     libucrt:lcidtoname_downlevel.obj
 0002:00004fc8       ??_C@_1M@BNFIGBKG@?$AAe?$AAn?$AA?9?$AAg?$AAb?$AA?$AA@ 0000000180027fc8     libucrt:lcidtoname_downlevel.obj
 0002:00004fd8       ??_C@_1M@LKIFDIGP@?$AAe?$AAn?$AA?9?$AAi?$AAe?$AA?$AA@ 0000000180027fd8     libucrt:lcidtoname_downlevel.obj
 0002:00004fe8       ??_C@_1M@PJKFGCCO@?$AAe?$AAn?$AA?9?$AAj?$AAm?$AA?$AA@ 0000000180027fe8     libucrt:lcidtoname_downlevel.obj
 0002:00004ff8       ??_C@_1M@KPPKEPBO@?$AAe?$AAn?$AA?9?$AAn?$AAz?$AA?$AA@ 0000000180027ff8     libucrt:lcidtoname_downlevel.obj
 0002:00005008       ??_C@_1M@GMDGLDOB@?$AAe?$AAn?$AA?9?$AAp?$AAh?$AA?$AA@ 0000000180028008     libucrt:lcidtoname_downlevel.obj
 0002:00005018       ??_C@_1M@ONGIBJNA@?$AAe?$AAn?$AA?9?$AAt?$AAt?$AA?$AA@ 0000000180028018     libucrt:lcidtoname_downlevel.obj
 0002:00005028       ??_C@_1M@LLODPCMM@?$AAe?$AAn?$AA?9?$AAu?$AAs?$AA?$AA@ 0000000180028028     libucrt:lcidtoname_downlevel.obj
 0002:00005038       ??_C@_1M@LAKFNPAN@?$AAe?$AAn?$AA?9?$AAz?$AAa?$AA?$AA@ 0000000180028038     libucrt:lcidtoname_downlevel.obj
 0002:00005048       ??_C@_1M@MFNHNHEO@?$AAe?$AAn?$AA?9?$AAz?$AAw?$AA?$AA@ 0000000180028048     libucrt:lcidtoname_downlevel.obj
 0002:00005058       ??_C@_1M@EJEINPHM@?$AAe?$AAs?$AA?9?$AAa?$AAr?$AA?$AA@ 0000000180028058     libucrt:lcidtoname_downlevel.obj
 0002:00005068       ??_C@_1M@GNKPCCJA@?$AAe?$AAs?$AA?9?$AAb?$AAo?$AA?$AA@ 0000000180028068     libucrt:lcidtoname_downlevel.obj
 0002:00005078       ??_C@_1M@LEEGFONL@?$AAe?$AAs?$AA?9?$AAc?$AAl?$AA?$AA@ 0000000180028078     libucrt:lcidtoname_downlevel.obj
 0002:00005088       ??_C@_1M@KGPDPBDF@?$AAe?$AAs?$AA?9?$AAc?$AAo?$AA?$AA@ 0000000180028088     libucrt:lcidtoname_downlevel.obj
 0002:00005098       ??_C@_1M@EIAHOHH@?$AAe?$AAs?$AA?9?$AAc?$AAr?$AA?$AA@ 0000000180028098     libucrt:lcidtoname_downlevel.obj
 0002:000050a8       ??_C@_1M@LLPGMBIN@?$AAe?$AAs?$AA?9?$AAd?$AAo?$AA?$AA@ 00000001800280a8     libucrt:lcidtoname_downlevel.obj
 0002:000050b8       ??_C@_1M@DKHMKNJA@?$AAe?$AAs?$AA?9?$AAe?$AAc?$AA?$AA@ 00000001800280b8     libucrt:lcidtoname_downlevel.obj
 0002:000050c8       ??_C@_1M@GKGFPKAP@?$AAe?$AAs?$AA?9?$AAe?$AAs?$AA?$AA@ 00000001800280c8     libucrt:lcidtoname_downlevel.obj
 0002:000050d8       ??_C@_1M@LKHKGDLN@?$AAe?$AAs?$AA?9?$AAg?$AAt?$AA?$AA@ 00000001800280d8     libucrt:lcidtoname_downlevel.obj
 0002:000050e8       ??_C@_1M@HEIIGGJD@?$AAe?$AAs?$AA?9?$AAh?$AAn?$AA?$AA@ 00000001800280e8     libucrt:lcidtoname_downlevel.obj
 0002:000050f8       ??_C@_1M@FBDHPPGD@?$AAe?$AAs?$AA?9?$AAm?$AAx?$AA?$AA@ 00000001800280f8     libucrt:lcidtoname_downlevel.obj
 0002:00005108       ??_C@_1M@DPAGLNDH@?$AAe?$AAs?$AA?9?$AAn?$AAi?$AA?$AA@ 0000000180028108     libucrt:lcidtoname_downlevel.obj
 0002:00005118       ??_C@_1M@MDGOPGDD@?$AAe?$AAs?$AA?9?$AAp?$AAa?$AA?$AA@ 0000000180028118     libucrt:lcidtoname_downlevel.obj
 0002:00005128       ??_C@_1M@EMAMGBGE@?$AAe?$AAs?$AA?9?$AAp?$AAe?$AA?$AA@ 0000000180028128     libucrt:lcidtoname_downlevel.obj
 0002:00005138       ??_C@_1M@IBMCAOEC@?$AAe?$AAs?$AA?9?$AAp?$AAr?$AA?$AA@ 0000000180028138     libucrt:lcidtoname_downlevel.obj
 0002:00005148       ??_C@_1M@FGMDIJED@?$AAe?$AAs?$AA?9?$AAp?$AAy?$AA?$AA@ 0000000180028148     libucrt:lcidtoname_downlevel.obj
 0002:00005158       ??_C@_1M@IIDEOLLL@?$AAe?$AAs?$AA?9?$AAs?$AAv?$AA?$AA@ 0000000180028158     libucrt:lcidtoname_downlevel.obj
 0002:00005168       ??_C@_1M@GAOBIPA@?$AAe?$AAs?$AA?9?$AAu?$AAy?$AA?$AA@ 0000000180028168     libucrt:lcidtoname_downlevel.obj
 0002:00005178       ??_C@_1M@JKFFICHJ@?$AAe?$AAs?$AA?9?$AAv?$AAe?$AA?$AA@ 0000000180028178     libucrt:lcidtoname_downlevel.obj
 0002:00005188       ??_C@_1M@PNMLOJDF@?$AAe?$AAt?$AA?9?$AAe?$AAe?$AA?$AA@ 0000000180028188     libucrt:lcidtoname_downlevel.obj
 0002:00005198       ??_C@_1M@GHHLIKEI@?$AAe?$AAu?$AA?9?$AAe?$AAs?$AA?$AA@ 0000000180028198     libucrt:lcidtoname_downlevel.obj
 0002:000051a8       ??_C@_1M@PBNONODE@?$AAf?$AAa?$AA?9?$AAi?$AAr?$AA?$AA@ 00000001800281a8     libucrt:lcidtoname_downlevel.obj
 0002:000051b8       ??_C@_1M@JEEHPMIL@?$AAf?$AAi?$AA?9?$AAf?$AAi?$AA?$AA@ 00000001800281b8     libucrt:lcidtoname_downlevel.obj
 0002:000051c8       ??_C@_1M@LMDCNDBA@?$AAf?$AAo?$AA?9?$AAf?$AAo?$AA?$AA@ 00000001800281c8     libucrt:lcidtoname_downlevel.obj
 0002:000051d8       ??_C@_1M@JKEOHLDK@?$AAf?$AAr?$AA?9?$AAb?$AAe?$AA?$AA@ 00000001800281d8     libucrt:lcidtoname_downlevel.obj
 0002:000051e8       ??_C@_1M@NOHADPMI@?$AAf?$AAr?$AA?9?$AAc?$AAa?$AA?$AA@ 00000001800281e8     libucrt:lcidtoname_downlevel.obj
 0002:000051f8       ??_C@_1M@KDHIHAEC@?$AAf?$AAr?$AA?9?$AAc?$AAh?$AA?$AA@ 00000001800281f8     libucrt:lcidtoname_downlevel.obj
 0002:00005208       ??_C@_1M@MMBBFGAK@?$AAf?$AAr?$AA?9?$AAf?$AAr?$AA?$AA@ 0000000180028208     libucrt:lcidtoname_downlevel.obj
 0002:00005218       ??_C@_1M@PAFNENNF@?$AAf?$AAr?$AA?9?$AAl?$AAu?$AA?$AA@ 0000000180028218     libucrt:lcidtoname_downlevel.obj
 0002:00005228       ??_C@_1M@EOHDJGDD@?$AAf?$AAr?$AA?9?$AAm?$AAc?$AA?$AA@ 0000000180028228     libucrt:lcidtoname_downlevel.obj
 0002:00005238       ??_C@_1M@FAPLLOPF@?$AAg?$AAl?$AA?9?$AAe?$AAs?$AA?$AA@ 0000000180028238     libucrt:lcidtoname_downlevel.obj
 0002:00005248       ??_C@_1M@FOPBFLOO@?$AAg?$AAu?$AA?9?$AAi?$AAn?$AA?$AA@ 0000000180028248     libucrt:lcidtoname_downlevel.obj
 0002:00005258       ??_C@_1M@KBMCINPM@?$AAh?$AAe?$AA?9?$AAi?$AAl?$AA?$AA@ 0000000180028258     libucrt:lcidtoname_downlevel.obj
 0002:00005268       ??_C@_1M@BBPHKFPJ@?$AAh?$AAi?$AA?9?$AAi?$AAn?$AA?$AA@ 0000000180028268     libucrt:lcidtoname_downlevel.obj
 0002:00005278       ??_C@_1M@PMBNDPHD@?$AAh?$AAr?$AA?9?$AAb?$AAa?$AA?$AA@ 0000000180028278     libucrt:lcidtoname_downlevel.obj
 0002:00005288       ??_C@_1M@BPCKOEGE@?$AAh?$AAr?$AA?9?$AAh?$AAr?$AA?$AA@ 0000000180028288     libucrt:lcidtoname_downlevel.obj
 0002:00005298       ??_C@_1M@GACBMHKE@?$AAh?$AAu?$AA?9?$AAh?$AAu?$AA?$AA@ 0000000180028298     libucrt:lcidtoname_downlevel.obj
 0002:000052a8       ??_C@_1M@MILPAJJC@?$AAh?$AAy?$AA?9?$AAa?$AAm?$AA?$AA@ 00000001800282a8     libucrt:lcidtoname_downlevel.obj
 0002:000052b8       ??_C@_1M@BABBICEC@?$AAi?$AAd?$AA?9?$AAi?$AAd?$AA?$AA@ 00000001800282b8     libucrt:lcidtoname_downlevel.obj
 0002:000052c8       ??_C@_1M@BIKNHHPF@?$AAi?$AAs?$AA?9?$AAi?$AAs?$AA?$AA@ 00000001800282c8     libucrt:lcidtoname_downlevel.obj
 0002:000052d8       ??_C@_1M@NMPCJPHE@?$AAi?$AAt?$AA?9?$AAc?$AAh?$AA?$AA@ 00000001800282d8     libucrt:lcidtoname_downlevel.obj
 0002:000052e8       ??_C@_1M@GHKGFEDF@?$AAi?$AAt?$AA?9?$AAi?$AAt?$AA?$AA@ 00000001800282e8     libucrt:lcidtoname_downlevel.obj
 0002:000052f8       ??_C@_1M@NIEJCJJA@?$AAj?$AAa?$AA?9?$AAj?$AAp?$AA?$AA@ 00000001800282f8     libucrt:lcidtoname_downlevel.obj
 0002:00005308       ??_C@_1M@JILFNBIM@?$AAk?$AAa?$AA?9?$AAg?$AAe?$AA?$AA@ 0000000180028308     libucrt:lcidtoname_downlevel.obj
 0002:00005318       ??_C@_1M@PACPMGPH@?$AAk?$AAk?$AA?9?$AAk?$AAz?$AA?$AA@ 0000000180028318     libucrt:lcidtoname_downlevel.obj
 0002:00005328       ??_C@_1M@IELFGMHA@?$AAk?$AAn?$AA?9?$AAi?$AAn?$AA?$AA@ 0000000180028328     libucrt:lcidtoname_downlevel.obj
 0002:00005338       ??_C@_1O@IBBJHCH@?$AAk?$AAo?$AAk?$AA?9?$AAi?$AAn?$AA?$AA@ 0000000180028338     libucrt:lcidtoname_downlevel.obj
 0002:00005348       ??_C@_1M@DMHAEOGC@?$AAk?$AAo?$AA?9?$AAk?$AAr?$AA?$AA@ 0000000180028348     libucrt:lcidtoname_downlevel.obj
 0002:00005358       ??_C@_1M@HBAHBIGA@?$AAk?$AAy?$AA?9?$AAk?$AAg?$AA?$AA@ 0000000180028358     libucrt:lcidtoname_downlevel.obj
 0002:00005368       ??_C@_1M@KPMILCJG@?$AAl?$AAt?$AA?9?$AAl?$AAt?$AA?$AA@ 0000000180028368     libucrt:lcidtoname_downlevel.obj
 0002:00005378       ??_C@_1M@BDEKKCA@?$AAl?$AAv?$AA?9?$AAl?$AAv?$AA?$AA@ 0000000180028378     libucrt:lcidtoname_downlevel.obj
 0002:00005388       ??_C@_1M@ELCKCCJJ@?$AAm?$AAi?$AA?9?$AAn?$AAz?$AA?$AA@ 0000000180028388     libucrt:lcidtoname_downlevel.obj
 0002:00005398       ??_C@_1M@CBOOLAPA@?$AAm?$AAk?$AA?9?$AAm?$AAk?$AA?$AA@ 0000000180028398     libucrt:lcidtoname_downlevel.obj
 0002:000053a8       ??_C@_1M@GPHNBJKN@?$AAm?$AAl?$AA?9?$AAi?$AAn?$AA?$AA@ 00000001800283a8     libucrt:lcidtoname_downlevel.obj
 0002:000053b8       ??_C@_1M@PABJILIG@?$AAm?$AAn?$AA?9?$AAm?$AAn?$AA?$AA@ 00000001800283b8     libucrt:lcidtoname_downlevel.obj
 0002:000053c8       ??_C@_1M@FGBKKIPG@?$AAm?$AAr?$AA?9?$AAi?$AAn?$AA?$AA@ 00000001800283c8     libucrt:lcidtoname_downlevel.obj
 0002:000053d8       ??_C@_1M@NDBPDDAL@?$AAm?$AAs?$AA?9?$AAb?$AAn?$AA?$AA@ 00000001800283d8     libucrt:lcidtoname_downlevel.obj
 0002:000053e8       ??_C@_1M@OPIHOOPI@?$AAm?$AAs?$AA?9?$AAm?$AAy?$AA?$AA@ 00000001800283e8     libucrt:lcidtoname_downlevel.obj
 0002:000053f8       ??_C@_1M@PPDBCNFM@?$AAm?$AAt?$AA?9?$AAm?$AAt?$AA?$AA@ 00000001800283f8     libucrt:lcidtoname_downlevel.obj
 0002:00005408       ??_C@_1M@KDJDKMDD@?$AAn?$AAb?$AA?9?$AAn?$AAo?$AA?$AA@ 0000000180028408     libucrt:lcidtoname_downlevel.obj
 0002:00005418       ??_C@_1M@KFCFLMJP@?$AAn?$AAl?$AA?9?$AAb?$AAe?$AA?$AA@ 0000000180028418     libucrt:lcidtoname_downlevel.obj
 0002:00005428       ??_C@_1M@KPOPDDGO@?$AAn?$AAl?$AA?9?$AAn?$AAl?$AA?$AA@ 0000000180028428     libucrt:lcidtoname_downlevel.obj
 0002:00005438       ??_C@_1M@LJKPEMLN@?$AAn?$AAn?$AA?9?$AAn?$AAo?$AA?$AA@ 0000000180028438     libucrt:lcidtoname_downlevel.obj
 0002:00005448       ??_C@_1M@BDGHHBFL@?$AAn?$AAs?$AA?9?$AAz?$AAa?$AA?$AA@ 0000000180028448     libucrt:lcidtoname_downlevel.obj
 0002:00005458       ??_C@_1M@IDEHOAP@?$AAp?$AAa?$AA?9?$AAi?$AAn?$AA?$AA@ 0000000180028458     libucrt:lcidtoname_downlevel.obj
 0002:00005468       ??_C@_1M@HDBKGOGH@?$AAp?$AAl?$AA?9?$AAp?$AAl?$AA?$AA@ 0000000180028468     libucrt:lcidtoname_downlevel.obj
 0002:00005478       ??_C@_1M@LJLLCMEH@?$AAp?$AAt?$AA?9?$AAb?$AAr?$AA?$AA@ 0000000180028478     libucrt:lcidtoname_downlevel.obj
 0002:00005488       ??_C@_1M@NCMONAAL@?$AAp?$AAt?$AA?9?$AAp?$AAt?$AA?$AA@ 0000000180028488     libucrt:lcidtoname_downlevel.obj
 0002:00005498       ??_C@_1O@EAKMAJDN@?$AAq?$AAu?$AAz?$AA?9?$AAb?$AAo?$AA?$AA@ 0000000180028498     libucrt:lcidtoname_downlevel.obj
 0002:000054a8       ??_C@_1O@BHHPIGDN@?$AAq?$AAu?$AAz?$AA?9?$AAe?$AAc?$AA?$AA@ 00000001800284a8     libucrt:lcidtoname_downlevel.obj
 0002:000054b8       ??_C@_1O@GBAPEKMJ@?$AAq?$AAu?$AAz?$AA?9?$AAp?$AAe?$AA?$AA@ 00000001800284b8     libucrt:lcidtoname_downlevel.obj
 0002:000054c8       ??_C@_1M@CLGLEFBO@?$AAr?$AAo?$AA?9?$AAr?$AAo?$AA?$AA@ 00000001800284c8     libucrt:lcidtoname_downlevel.obj
 0002:000054d8       ??_C@_1M@CEEDODME@?$AAr?$AAu?$AA?9?$AAr?$AAu?$AA?$AA@ 00000001800284d8     libucrt:lcidtoname_downlevel.obj
 0002:000054e8       ??_C@_1M@HPKKKMPP@?$AAs?$AAa?$AA?9?$AAi?$AAn?$AA?$AA@ 00000001800284e8     libucrt:lcidtoname_downlevel.obj
 0002:000054f8       ??_C@_1M@BKMAIGOJ@?$AAs?$AAe?$AA?9?$AAf?$AAi?$AA?$AA@ 00000001800284f8     libucrt:lcidtoname_downlevel.obj
 0002:00005508       ??_C@_1M@NDPIFLFI@?$AAs?$AAe?$AA?9?$AAn?$AAo?$AA?$AA@ 0000000180028508     libucrt:lcidtoname_downlevel.obj
 0002:00005518       ??_C@_1M@DANKKHJ@?$AAs?$AAe?$AA?9?$AAs?$AAe?$AA?$AA@ 0000000180028518     libucrt:lcidtoname_downlevel.obj
 0002:00005528       ??_C@_1M@PNBLONPJ@?$AAs?$AAk?$AA?9?$AAs?$AAk?$AA?$AA@ 0000000180028528     libucrt:lcidtoname_downlevel.obj
 0002:00005538       ??_C@_1M@LFMODOAL@?$AAs?$AAl?$AA?9?$AAs?$AAi?$AA?$AA@ 0000000180028538     libucrt:lcidtoname_downlevel.obj
 0002:00005548       ??_C@_1O@DFKOMPG@?$AAs?$AAm?$AAa?$AA?9?$AAn?$AAo?$AA?$AA@ 0000000180028548     libucrt:lcidtoname_downlevel.obj
 0002:00005558       ??_C@_1O@NDKPBNNH@?$AAs?$AAm?$AAa?$AA?9?$AAs?$AAe?$AA?$AA@ 0000000180028558     libucrt:lcidtoname_downlevel.obj
 0002:00005568       ??_C@_1O@PLLKBHAB@?$AAs?$AAm?$AAj?$AA?9?$AAn?$AAo?$AA?$AA@ 0000000180028568     libucrt:lcidtoname_downlevel.obj
 0002:00005578       ??_C@_1O@CLEPOGCA@?$AAs?$AAm?$AAj?$AA?9?$AAs?$AAe?$AA?$AA@ 0000000180028578     libucrt:lcidtoname_downlevel.obj
 0002:00005588       ??_C@_1O@DLGJGKMK@?$AAs?$AAm?$AAn?$AA?9?$AAf?$AAi?$AA?$AA@ 0000000180028588     libucrt:lcidtoname_downlevel.obj
 0002:00005598       ??_C@_1O@OJDJGAJC@?$AAs?$AAm?$AAs?$AA?9?$AAf?$AAi?$AA?$AA@ 0000000180028598     libucrt:lcidtoname_downlevel.obj
 0002:000055a8       ??_C@_1M@BOFOGHPB@?$AAs?$AAq?$AA?9?$AAa?$AAl?$AA?$AA@ 00000001800285a8     libucrt:lcidtoname_downlevel.obj
 0002:000055b8       ??_C@_1BG@LJBBIPGB@?$AAs?$AAr?$AA?9?$AAb?$AAa?$AA?9?$AAc?$AAy?$AAr?$AAl?$AA?$AA@ 00000001800285b8     libucrt:lcidtoname_downlevel.obj
 0002:000055d0       ??_C@_1BG@JLBENFOE@?$AAs?$AAr?$AA?9?$AAb?$AAa?$AA?9?$AAl?$AAa?$AAt?$AAn?$AA?$AA@ 00000001800285d0     libucrt:lcidtoname_downlevel.obj
 0002:000055e8       ??_C@_1BG@KODPNHE@?$AAs?$AAr?$AA?9?$AAs?$AAp?$AA?9?$AAc?$AAy?$AAr?$AAl?$AA?$AA@ 00000001800285e8     libucrt:lcidtoname_downlevel.obj
 0002:00005600       ??_C@_1BG@CIOGKHPB@?$AAs?$AAr?$AA?9?$AAs?$AAp?$AA?9?$AAl?$AAa?$AAt?$AAn?$AA?$AA@ 0000000180028600     libucrt:lcidtoname_downlevel.obj
 0002:00005618       ??_C@_1M@NGFJLMAC@?$AAs?$AAv?$AA?9?$AAf?$AAi?$AA?$AA@ 0000000180028618     libucrt:lcidtoname_downlevel.obj
 0002:00005628       ??_C@_1M@MPJEJAJC@?$AAs?$AAv?$AA?9?$AAs?$AAe?$AA?$AA@ 0000000180028628     libucrt:lcidtoname_downlevel.obj
 0002:00005638       ??_C@_1M@MPNDHLFK@?$AAs?$AAw?$AA?9?$AAk?$AAe?$AA?$AA@ 0000000180028638     libucrt:lcidtoname_downlevel.obj
 0002:00005648       ??_C@_1O@KOHBJJI@?$AAs?$AAy?$AAr?$AA?9?$AAs?$AAy?$AA?$AA@ 0000000180028648     libucrt:lcidtoname_downlevel.obj
 0002:00005658       ??_C@_1M@LDCEFHA@?$AAt?$AAa?$AA?9?$AAi?$AAn?$AA?$AA@ 0000000180028658     libucrt:lcidtoname_downlevel.obj
 0002:00005668       ??_C@_1M@CNJOFAK@?$AAt?$AAe?$AA?9?$AAi?$AAn?$AA?$AA@ 0000000180028668     libucrt:lcidtoname_downlevel.obj
 0002:00005678       ??_C@_1M@GNAECACD@?$AAt?$AAh?$AA?9?$AAt?$AAh?$AA?$AA@ 0000000180028678     libucrt:lcidtoname_downlevel.obj
 0002:00005688       ??_C@_1M@CHBIHOJO@?$AAt?$AAn?$AA?9?$AAz?$AAa?$AA?$AA@ 0000000180028688     libucrt:lcidtoname_downlevel.obj
 0002:00005698       ??_C@_1M@GCCMIGPJ@?$AAt?$AAr?$AA?9?$AAt?$AAr?$AA?$AA@ 0000000180028698     libucrt:lcidtoname_downlevel.obj
 0002:000056a8       ??_C@_1M@CELMCNBK@?$AAt?$AAt?$AA?9?$AAr?$AAu?$AA?$AA@ 00000001800286a8     libucrt:lcidtoname_downlevel.obj
 0002:000056b8       ??_C@_1M@KLMCELGA@?$AAu?$AAk?$AA?9?$AAu?$AAa?$AA?$AA@ 00000001800286b8     libucrt:lcidtoname_downlevel.obj
 0002:000056c8       ??_C@_1M@EPAJJAJF@?$AAu?$AAr?$AA?9?$AAp?$AAk?$AA?$AA@ 00000001800286c8     libucrt:lcidtoname_downlevel.obj
 0002:000056d8       ??_C@_1BG@GEGPMCDJ@?$AAu?$AAz?$AA?9?$AAu?$AAz?$AA?9?$AAc?$AAy?$AAr?$AAl?$AA?$AA@ 00000001800286d8     libucrt:lcidtoname_downlevel.obj
 0002:000056f0       ??_C@_1BG@EGGKJILM@?$AAu?$AAz?$AA?9?$AAu?$AAz?$AA?9?$AAl?$AAa?$AAt?$AAn?$AA?$AA@ 00000001800286f0     libucrt:lcidtoname_downlevel.obj
 0002:00005708       ??_C@_1M@GFOCLFF@?$AAv?$AAi?$AA?9?$AAv?$AAn?$AA?$AA@ 0000000180028708     libucrt:lcidtoname_downlevel.obj
 0002:00005718       ??_C@_1M@CPAMEDFI@?$AAx?$AAh?$AA?9?$AAz?$AAa?$AA?$AA@ 0000000180028718     libucrt:lcidtoname_downlevel.obj
 0002:00005728       ??_C@_1O@EBKIFIGN@?$AAz?$AAh?$AA?9?$AAc?$AAh?$AAs?$AA?$AA@ 0000000180028728     libucrt:lcidtoname_downlevel.obj
 0002:00005738       ??_C@_1O@NMHPGANE@?$AAz?$AAh?$AA?9?$AAc?$AAh?$AAt?$AA?$AA@ 0000000180028738     libucrt:lcidtoname_downlevel.obj
 0002:00005748       ??_C@_1M@LPINJOMC@?$AAz?$AAh?$AA?9?$AAc?$AAn?$AA?$AA@ 0000000180028748     libucrt:lcidtoname_downlevel.obj
 0002:00005758       ??_C@_1M@OCJEJODD@?$AAz?$AAh?$AA?9?$AAh?$AAk?$AA?$AA@ 0000000180028758     libucrt:lcidtoname_downlevel.obj
 0002:00005768       ??_C@_1M@DNDLJINH@?$AAz?$AAh?$AA?9?$AAm?$AAo?$AA?$AA@ 0000000180028768     libucrt:lcidtoname_downlevel.obj
 0002:00005778       ??_C@_1M@MBFDNDND@?$AAz?$AAh?$AA?9?$AAs?$AAg?$AA?$AA@ 0000000180028778     libucrt:lcidtoname_downlevel.obj
 0002:00005788       ??_C@_1M@IMEPLEPE@?$AAz?$AAh?$AA?9?$AAt?$AAw?$AA?$AA@ 0000000180028788     libucrt:lcidtoname_downlevel.obj
 0002:00005798       ??_C@_1M@BBGHNHJP@?$AAz?$AAu?$AA?9?$AAz?$AAa?$AA?$AA@ 0000000180028798     libucrt:lcidtoname_downlevel.obj
 0002:00005a00       ??_C@_1BA@BALFACEM@?$AAC?$AAO?$AAN?$AAO?$AAU?$AAT?$AA$?$AA?$AA@ 0000000180028a00     libucrt:initcon.obj
 0002:00005a10       __log10_256_lead           0000000180028a10     libucrt:log10_256_lead_tail_table.obj
 0002:00006220       __log10_256_tail           0000000180029220     libucrt:log10_256_lead_tail_table.obj
 0002:00006a30       __log_F_inv_qword          0000000180029a30     libucrt:log_f_inv_qword_table.obj
 0002:00007240       ??_C@_05HGHHAHAP@log10?$AA@ 000000018002a240     libucrt:log_special.obj
 0002:00007260       ??_C@_1BK@DBDEIDLH@?$AAK?$AAE?$AAR?$AAN?$AAE?$AAL?$AA3?$AA2?$AA?4?$AAD?$AAL?$AAL?$AA?$AA@ 000000018002a260     DelayImp:delayhlp.obj
 0002:00007280       ??_C@_0BI@OMNLIJDB@AcquireSRWLockExclusive?$AA@ 000000018002a280     DelayImp:delayhlp.obj
 0002:00007298       ??_C@_0BI@HMIEPCNJ@ReleaseSRWLockExclusive?$AA@ 000000018002a298     DelayImp:delayhlp.obj
 0002:000072b0       __pfnDliFailureHook2       000000018002a2b0     DelayImp:delayhk1.obj
 0002:000072c0       _load_config_used          000000018002a2c0     LIBCMT:loadcfg.obj
 0002:00007354       ??_C@_04IHONJAFL@make?$AA@ 000000018002a354     binding.obj
 0002:00007360       ??_C@_07ONPFMHHK@convert?$AA@ 000000018002a360     binding.obj
 0002:00007368       ??_C@_06HIMGHAFD@EINVAL?$AA@ 000000018002a368     binding.obj
 0002:00007370       ??_C@_06MNLNBHMB@EILSEQ?$AA@ 000000018002a370     binding.obj
 0002:00007378       ??_C@_05DLCHNBFO@E2BIG?$AA@ 000000018002a378     binding.obj
 0002:00007380       ??_C@_0BC@OMDPIAIO@?4?4?2src?2binding?4cc?$AA@ 000000018002a380     binding.obj
 0002:00007398       ??_C@_08NJCMPDLN@libiconv?$AA@ 000000018002a398     binding.obj
 0002:000073a8       ??_C@_0L@NPDEOAMO@?1?1TRANSLIT?$AA@ 000000018002a3a8     iconv.obj
 0002:000073b8       ??_C@_08GBKEDDHK@?1?1IGNORE?$AA@ 000000018002a3b8     iconv.obj
 0002:000073c1       ??_C@_00CNPNBAHC@?$AA@     000000018002a3c1     iconv.obj
 0002:00091728       __pfnDliNotifyHook2        00000001800b4728     win_delay_load_hook.obj
 0002:000e3f50       ??_C@_08HCOMDCCD@iojs?4exe?$AA@ 0000000180106f50     win_delay_load_hook.obj
 0002:000e3f60       ??_C@_08JDDNMFDB@node?4exe?$AA@ 0000000180106f60     win_delay_load_hook.obj
 0002:000e3fc8       ??_R4exception@std@@6B@    0000000180106fc8     LIBCMT:throw_bad_alloc.obj
 0002:000e3ff0       ??_R3exception@std@@8      0000000180106ff0     LIBCMT:throw_bad_alloc.obj
 0002:000e4008       ??_R2exception@std@@8      0000000180107008     LIBCMT:throw_bad_alloc.obj
 0002:000e4018       ??_R1A@?0A@EA@exception@std@@8 0000000180107018     LIBCMT:throw_bad_alloc.obj
 0002:000e4040       ??_R4bad_alloc@std@@6B@    0000000180107040     LIBCMT:throw_bad_alloc.obj
 0002:000e4068       ??_R3bad_alloc@std@@8      0000000180107068     LIBCMT:throw_bad_alloc.obj
 0002:000e4080       ??_R2bad_alloc@std@@8      0000000180107080     LIBCMT:throw_bad_alloc.obj
 0002:000e4098       ??_R1A@?0A@EA@bad_alloc@std@@8 0000000180107098     LIBCMT:throw_bad_alloc.obj
 0002:000e40c0       ??_R4bad_array_new_length@std@@6B@ 00000001801070c0     LIBCMT:throw_bad_alloc.obj
 0002:000e40e8       ??_R3bad_array_new_length@std@@8 00000001801070e8     LIBCMT:throw_bad_alloc.obj
 0002:000e4100       ??_R2bad_array_new_length@std@@8 0000000180107100     LIBCMT:throw_bad_alloc.obj
 0002:000e4120       ??_R1A@?0A@EA@bad_array_new_length@std@@8 0000000180107120     LIBCMT:throw_bad_alloc.obj
 0002:000e4148       ??_R4type_info@@6B@        0000000180107148     LIBCMT:std_type_info_static.obj
 0002:000e4170       ??_R3type_info@@8          0000000180107170     LIBCMT:std_type_info_static.obj
 0002:000e4188       ??_R2type_info@@8          0000000180107188     LIBCMT:std_type_info_static.obj
 0002:000e4198       ??_R1A@?0A@EA@type_info@@8 0000000180107198     LIBCMT:std_type_info_static.obj
 0002:000e45b0       __rtc_iaa                  00000001801075b0     LIBCMT:_initsect_.obj
 0002:000e45b8       __rtc_izz                  00000001801075b8     LIBCMT:_initsect_.obj
 0002:000e45c0       __rtc_taa                  00000001801075c0     LIBCMT:_initsect_.obj
 0002:000e45c8       __rtc_tzz                  00000001801075c8     LIBCMT:_initsect_.obj
 0002:000e56f0       _TI2?AVbad_alloc@std@@     00000001801086f0     LIBCMT:throw_bad_alloc.obj
 0002:000e5710       _CTA2?AVbad_alloc@std@@    0000000180108710     LIBCMT:throw_bad_alloc.obj
 0002:000e5728       _CT??_R0?AVbad_alloc@std@@@8??0bad_alloc@std@@QEAA@AEBV01@@Z24 0000000180108728     LIBCMT:throw_bad_alloc.obj
 0002:000e5750       _CT??_R0?AVexception@std@@@8??0exception@std@@QEAA@AEBV01@@Z24 0000000180108750     LIBCMT:throw_bad_alloc.obj
 0002:000e5778       _TI3?AVbad_array_new_length@std@@ 0000000180108778     LIBCMT:throw_bad_alloc.obj
 0002:000e5798       _CTA3?AVbad_array_new_length@std@@ 0000000180108798     LIBCMT:throw_bad_alloc.obj
 0002:000e57b8       _CT??_R0?AVbad_array_new_length@std@@@8??0bad_array_new_length@std@@QEAA@AEBV01@@Z24 00000001801087b8     LIBCMT:throw_bad_alloc.obj
 0002:000e57dc       __DELAY_IMPORT_DESCRIPTOR_node_exe 00000001801087dc     node:node.exe
 0002:000e57fc       __NULL_DELAY_IMPORT_DESCRIPTOR 00000001801087fc     node:node.exe
 0002:000e5938       \177node_NULL_THUNK_DATA_DLN 0000000180108938     node:node.exe
 0002:000e6278       \177node_NULL_THUNK_DATA_DLB 0000000180109278     node:node.exe
 0002:000e63e4       __IMPORT_DESCRIPTOR_KERNEL32 00000001801093e4     kernel32:KERNEL32.dll
 0002:000e63f8       __NULL_IMPORT_DESCRIPTOR   00000001801093f8     kernel32:KERNEL32.dll
 0003:00000000       __scrt_native_dllmain_reason 000000018010a000     LIBCMT:utility.obj
 0003:00000008       __security_cookie          000000018010a008     LIBCMT:gs_cookie.obj
 0003:00000010       __security_cookie_complement 000000018010a010     LIBCMT:gs_cookie.obj
 0003:00000018       __isa_available            000000018010a018     LIBCMT:_cpu_disp_.obj
 0003:0000001c       __isa_enabled              000000018010a01c     LIBCMT:_cpu_disp_.obj
 0003:00000020       __memcpy_nt_iters          000000018010a020     LIBCMT:_cpu_disp_.obj
 0003:00000048       __abort_behavior           000000018010a048     libucrt:abort.obj
 0003:00000050       _iob                       000000018010a050     libucrt:_file.obj
 0003:00000160       __acrt_initial_locale_data 000000018010a160     libucrt:nlsdata.obj
 0003:000002b8       __acrt_initial_locale_pointers 000000018010a2b8     libucrt:nlsdata.obj
 0003:000002c8       __acrt_wide_c_locale_string 000000018010a2c8     libucrt:nlsdata.obj
 0003:000002d0       __acrt_initial_multibyte_data 000000018010a2d0     libucrt:mbctype.obj
 0003:000004f8       __acrt_current_multibyte_data 000000018010a4f8     libucrt:mbctype.obj
 0003:00000600       _mbctype                   000000018010a600     libucrt:mbctype.obj
 0003:00000710       _mbcasemap                 000000018010a710     libucrt:mbctype.obj
 0003:00000810       __globallocalestatus       000000018010a810     libucrt:glstatus.obj
 0003:00000820       __acrt_lconv_c             000000018010a820     libucrt:localeconv.obj
 0003:000008b8       __acrt_lconv_static_decimal 000000018010a8b8     libucrt:localeconv.obj
 0003:000008bc       __acrt_lconv_static_W_decimal 000000018010a8bc     libucrt:localeconv.obj
 0003:000008c0       __dcrt_lowio_console_output_handle 000000018010a8c0     libucrt:initcon.obj
 0003:000008e0       _fltused                   000000018010a8e0     LIBCMT:fltused.obj
 0003:00000930       ??_R0?AVbad_alloc@std@@@8  000000018010a930     LIBCMT:throw_bad_alloc.obj
 0003:00000958       ??_R0?AVexception@std@@@8  000000018010a958     LIBCMT:throw_bad_alloc.obj
 0003:00000980       ??_R0?AVbad_array_new_length@std@@@8 000000018010a980     LIBCMT:throw_bad_alloc.obj
 0003:000009b0       ??_R0?AVtype_info@@@8      000000018010a9b0     LIBCMT:std_type_info_static.obj
 0003:000009d0       __imp_?Value@External@v8@@QEBAPEAXXZ 000000018010a9d0     node:node.exe
 0003:000009d8       __imp_?New@External@v8@@SA?AV?$Local@VExternal@v8@@@2@PEAVIsolate@2@PEAX@Z 000000018010a9d8     node:node.exe
 0003:000009e0       __imp_?NewFromUnsigned@Integer@v8@@SA?AV?$Local@VInteger@v8@@@2@PEAVIsolate@2@I@Z 000000018010a9e0     node:node.exe
 0003:000009e8       __imp_?New@Integer@v8@@SA?AV?$Local@VInteger@v8@@@2@PEAVIsolate@2@H@Z 000000018010a9e8     node:node.exe
 0003:000009f0       __imp_?GetCurrentContext@Isolate@v8@@QEAA?AV?$Local@VContext@v8@@@2@XZ 000000018010a9f0     node:node.exe
 0003:000009f8       __imp_?GetCurrent@Isolate@v8@@SAPEAV12@XZ 000000018010a9f8     node:node.exe
 0003:00000a00       __imp_?CreateHandle@HandleScope@v8@@KAPEAPEAVObject@internal@2@PEAVIsolate@42@PEAV342@@Z 000000018010aa00     node:node.exe
 0003:00000a08       __imp_?CreateHandle@HandleScope@v8@@CAPEAPEAVObject@internal@2@PEAVHeapObject@42@PEAV342@@Z 000000018010aa08     node:node.exe
 0003:00000a10       __imp_??1HandleScope@v8@@QEAA@XZ 000000018010aa10     node:node.exe
 0003:00000a18       __imp_?GetFunction@FunctionTemplate@v8@@QEAA?AV?$Local@VFunction@v8@@@2@XZ 000000018010aa18     node:node.exe
 0003:00000a20       __imp_?New@FunctionTemplate@v8@@SA?AV?$Local@VFunctionTemplate@v8@@@2@PEAVIsolate@2@P6AXAEBV?$FunctionCallbackInfo@VValue@v8@@@2@@ZV?$Local@VValue@v8@@@2@V?$Local@VSignature@v8@@@2@H@Z 000000018010aa20     node:node.exe
 0003:00000a28       __imp_?ToLocalEmpty@V8@v8@@CAXXZ 000000018010aa28     node:node.exe
 0003:00000a30       __imp_?MakeWeak@V8@v8@@CAXPEAPEAVObject@internal@2@PEAXP6AXAEBV?$WeakCallbackInfo@X@2@@ZW4WeakCallbackType@2@@Z 000000018010aa30     node:node.exe
 0003:00000a38       __imp_?DisposeGlobal@V8@v8@@CAXPEAPEAVObject@internal@2@@Z 000000018010aa38     node:node.exe
 0003:00000a40       __imp_?GlobalizeReference@V8@v8@@CAPEAPEAVObject@internal@2@PEAVIsolate@42@PEAPEAV342@@Z 000000018010aa40     node:node.exe
 0003:00000a48       __imp_?Uint32Value@Value@v8@@QEBAIXZ 000000018010aa48     node:node.exe
 0003:00000a50       __imp_?BooleanValue@Value@v8@@QEBA_NXZ 000000018010aa50     node:node.exe
 0003:00000a58       __imp_?ToInteger@Value@v8@@QEBA?AV?$MaybeLocal@VInteger@v8@@@2@V?$Local@VContext@v8@@@2@@Z 000000018010aa58     node:node.exe
 0003:00000a60       __imp_?Escape@EscapableHandleScope@v8@@AEAAPEAPEAVObject@internal@2@PEAPEAV342@@Z 000000018010aa60     node:node.exe
 0003:00000a68       __imp_??0EscapableHandleScope@v8@@QEAA@PEAVIsolate@1@@Z 000000018010aa68     node:node.exe
 0003:00000a70       __imp_??1Utf8Value@String@v8@@QEAA@XZ 000000018010aa70     node:node.exe
 0003:00000a78       __imp_??0Utf8Value@String@v8@@QEAA@V?$Local@VValue@v8@@@2@@Z 000000018010aa78     node:node.exe
 0003:00000a80       __imp_?NewFromUtf8@String@v8@@SA?AV?$MaybeLocal@VString@v8@@@2@PEAVIsolate@2@PEBDW4NewStringType@2@H@Z 000000018010aa80     node:node.exe
 0003:00000a88       __imp_?SlowGetAlignedPointerFromInternalField@Object@v8@@AEAAPEAXH@Z 000000018010aa88     node:node.exe
 0003:00000a90       __imp_?SlowGetInternalField@Object@v8@@AEAA?AV?$Local@VValue@v8@@@2@H@Z 000000018010aa90     node:node.exe
 0003:00000a98       __imp_?SetAlignedPointerInInternalField@Object@v8@@QEAAXHPEAX@Z 000000018010aa98     node:node.exe
 0003:00000aa0       __imp_?SetInternalField@Object@v8@@QEAAXHV?$Local@VValue@v8@@@2@@Z 000000018010aaa0     node:node.exe
 0003:00000aa8       __imp_?Set@Object@v8@@QEAA_NV?$Local@VValue@v8@@@2@0@Z 000000018010aaa8     node:node.exe
 0003:00000ab0       __imp_?Set@Object@v8@@QEAA_NIV?$Local@VValue@v8@@@2@@Z 000000018010aab0     node:node.exe
 0003:00000ab8       __imp_?SetInternalFieldCount@ObjectTemplate@v8@@QEAAXH@Z 000000018010aab8     node:node.exe
 0003:00000ac0       __imp_?NewInstance@ObjectTemplate@v8@@QEAA?AV?$Local@VObject@v8@@@2@XZ 000000018010aac0     node:node.exe
 0003:00000ac8       __imp_?NewInstance@ObjectTemplate@v8@@QEAA?AV?$MaybeLocal@VObject@v8@@@2@V?$Local@VContext@v8@@@2@@Z 000000018010aac8     node:node.exe
 0003:00000ad0       __imp_?New@ObjectTemplate@v8@@SA?AV?$Local@VObjectTemplate@v8@@@2@PEAVIsolate@2@V?$Local@VFunctionTemplate@v8@@@2@@Z 000000018010aad0     node:node.exe
 0003:00000ad8       __imp_node_module_register 000000018010aad8     node:node.exe
 0003:00000ae0       __imp_?Data@Buffer@node@@YAPEADV?$Local@VObject@v8@@@v8@@@Z 000000018010aae0     node:node.exe
 0003:00000ae8       \177node_NULL_THUNK_DATA_DLA 000000018010aae8     node:node.exe
 0003:00000af0       __hmod__node_exe           000000018010aaf0     node:node.exe
 0003:00000af8       __scrt_current_native_startup_state 000000018010aaf8     LIBCMT:utility.obj
 0003:00000b00       __scrt_native_startup_lock 000000018010ab00     LIBCMT:utility.obj
 0003:000010b0       __favor                    000000018010b0b0     LIBCMT:_cpu_disp_.obj
 0003:000010b4       __scrt_debugger_hook_flag  000000018010b0b4     LIBCMT:utility_desktop.obj
 0003:000010c0       ?__type_info_root_node@@3U__type_info_node@@A 000000018010b0c0     LIBCMT:tncleanup.obj
 0003:000010d0       ?_OptionsStorage@?1??__local_stdio_printf_options@@9@4_KA 000000018010b0d0     LIBCMT:default_local_stdio_options.obj
 0003:000010d8       ?_OptionsStorage@?1??__local_stdio_scanf_options@@9@4_KA 000000018010b0d8     LIBCMT:default_local_stdio_options.obj
 0003:000011f8       __pPurecall                000000018010b1f8     libvcruntime:purevirt_data.obj
 0003:00001200       ?pArgList@UnDecorator@@0PEAVReplicator@@EA 000000018010b200     libvcruntime:undname.obj
 0003:00001208       ?pZNameList@UnDecorator@@0PEAVReplicator@@EA 000000018010b208     libvcruntime:undname.obj
 0003:00001210       ?pTemplateArgList@UnDecorator@@0PEAVReplicator@@EA 000000018010b210     libvcruntime:undname.obj
 0003:00001218       ?gName@UnDecorator@@0PEBDEB 000000018010b218     libvcruntime:undname.obj
 0003:00001220       ?name@UnDecorator@@0PEBDEB 000000018010b220     libvcruntime:undname.obj
 0003:00001228       ?outputString@UnDecorator@@0PEADEA 000000018010b228     libvcruntime:undname.obj
 0003:00001230       ?maxStringLength@UnDecorator@@0HA 000000018010b230     libvcruntime:undname.obj
 0003:00001234       ?disableFlags@UnDecorator@@0KA 000000018010b234     libvcruntime:undname.obj
 0003:00001238       ?fExplicitTemplateParams@UnDecorator@@0_NA 000000018010b238     libvcruntime:undname.obj
 0003:00001239       ?fGetTemplateArgumentList@UnDecorator@@0_NA 000000018010b239     libvcruntime:undname.obj
 0003:00001240       ?m_pGetParameter@UnDecorator@@0P6APEADJ@ZEA 000000018010b240     libvcruntime:undname.obj
 0003:00001398       _environ_table             000000018010b398     libucrt:environment_initialization.obj
 0003:000013a0       _wenviron_table            000000018010b3a0     libucrt:environment_initialization.obj
 0003:000013a8       __dcrt_initial_wide_environment 000000018010b3a8     libucrt:environment_initialization.obj
 0003:000013b0       __dcrt_initial_narrow_environment 000000018010b3b0     libucrt:environment_initialization.obj
 0003:000013b8       __acrt_atexit_table        000000018010b3b8     libucrt:onexit.obj
 0003:000013d0       __acrt_at_quick_exit_table 000000018010b3d0     libucrt:onexit.obj
 0003:000013f8       _nstream                   000000018010b3f8     libucrt:_file.obj
 0003:00001400       __piob                     000000018010b400     libucrt:_file.obj
 0003:00001428       __acrt_locale_changed_data 000000018010b428     libucrt:wsetlocale.obj
 0003:00001430       __acrt_current_locale_data 000000018010b430     libucrt:nlsdata.obj
 0003:000017f4       __mbcodepage               000000018010b7f4     libucrt:mbctype.obj
 0003:000017f8       __ismbcodepage             000000018010b7f8     libucrt:mbctype.obj
 0003:00001800       __mbulinfo                 000000018010b800     libucrt:mbctype.obj
 0003:00001810       __mblocalename             000000018010b810     libucrt:mbctype.obj
 0003:0000181c       __argc                     000000018010b81c     libucrt:argv_data.obj
 0003:00001820       __argv                     000000018010b820     libucrt:argv_data.obj
 0003:00001828       __wargv                    000000018010b828     libucrt:argv_data.obj
 0003:00001830       _acmdln                    000000018010b830     libucrt:argv_data.obj
 0003:00001838       _wcmdln                    000000018010b838     libucrt:argv_data.obj
 0003:00001840       _pgmptr                    000000018010b840     libucrt:argv_data.obj
 0003:00001848       __acrt_heap                000000018010b848     libucrt:heap_handle.obj
 0003:00001850       __pioinfo                  000000018010b850     libucrt:ioinit.obj
 0003:00001c50       _nhandle                   000000018010bc50     libucrt:ioinit.obj
 0003:00001c60       __acrt_stdout_buffer       000000018010bc60     libucrt:_sftbuf.obj
 0003:00001c68       __acrt_stderr_buffer       000000018010bc68     libucrt:_sftbuf.obj
 0003:00001c74       __acrt_lconv_static_null   000000018010bc74     libucrt:localeconv.obj
 0003:00001c78       __acrt_lconv_static_W_null 000000018010bc78     libucrt:localeconv.obj
 0003:00001c7c       __fma3_is_available        000000018010bc7c     libucrt:fma3_available.obj
 0003:00001c80       __use_fma3_lib             000000018010bc80     libucrt:fma3_available.obj
 0003:00001c88       ?DloadKernel32@@3PEAUHINSTANCE__@@EA 000000018010bc88     DelayImp:delayhlp.obj
 0003:00001c90       ?DloadAcquireSRWLockExclusive@@3P6AXPEA_K@ZEA 000000018010bc90     DelayImp:delayhlp.obj
 0003:00001c98       ?DloadReleaseSRWLockExclusive@@3P6AXPEA_K@ZEA 000000018010bc98     DelayImp:delayhlp.obj
 0003:00001ca0       ?DloadSrwLock@@3_KA        000000018010bca0     DelayImp:delayhlp.obj
 0003:00001ca8       ?DloadSectionLockCount@@3KA 000000018010bca8     DelayImp:delayhlp.obj
 0003:00001cac       ?DloadSectionOldProtection@@3KA 000000018010bcac     DelayImp:delayhlp.obj
 0003:00001cb0       ?DloadSectionCommitPermanent@@3KA 000000018010bcb0     DelayImp:delayhlp.obj
 0003:00001cb8       ?object_template@Iconv@?A0x9d7288fc@@2V?$Persistent@VObjectTemplate@v8@@V?$NonCopyablePersistentTraits@VObjectTemplate@v8@@@2@@Nan@@A 000000018010bcb8     binding.obj
 0003:00001cc0       __dyn_tls_init_callback    000000018010bcc0     <common>
 0003:00001cc8       __scrt_ucrt_dll_is_in_use  000000018010bcc8     <common>
 0003:00001cd0       _pDestructExceptionObject  000000018010bcd0     <common>

 entry point at        0001:00017340

 Static symbols

 0000:ffeee000       .debug$S                   0000000180000000     node:node.exe
 0000:ffeee000       .debug$S                   0000000180000000     kernel32:KERNEL32.dll
 0000:ffeee000       .debug$S                   0000000180000000     kernel32:KERNEL32.dll
 0000:ffeee000       .debug$S                   0000000180000000     kernel32:KERNEL32.dll
 0000:ffeee000       .debug$S                   0000000180000000     kernel32:KERNEL32.dll
 0000:ffeee000       .debug$S                   0000000180000000     kernel32:KERNEL32.dll
 0000:ffeee000       .debug$S                   0000000180000000     kernel32:KERNEL32.dll
 0000:ffeee000       .debug$S                   0000000180000000     kernel32:KERNEL32.dll
 0000:ffeee000       .debug$S                   0000000180000000     kernel32:KERNEL32.dll
 0000:ffeee000       .debug$S                   0000000180000000     kernel32:KERNEL32.dll
 0000:ffeee000       .debug$S                   0000000180000000     kernel32:KERNEL32.dll
 0000:ffeee000       .debug$S                   0000000180000000     kernel32:KERNEL32.dll
 0000:ffeee000       .debug$S                   0000000180000000     kernel32:KERNEL32.dll
 0000:ffeee000       .debug$S                   0000000180000000     kernel32:KERNEL32.dll
 0000:ffeee000       .debug$S                   0000000180000000     kernel32:KERNEL32.dll
 0000:ffeee000       .debug$S                   0000000180000000     kernel32:KERNEL32.dll
 0000:ffeee000       .debug$S                   0000000180000000     kernel32:KERNEL32.dll
 0000:ffeee000       .debug$S                   0000000180000000     kernel32:KERNEL32.dll
 0000:ffeee000       .debug$S                   0000000180000000     kernel32:KERNEL32.dll
 0000:ffeee000       .debug$S                   0000000180000000     kernel32:KERNEL32.dll
 0000:ffeee000       .debug$S                   0000000180000000     kernel32:KERNEL32.dll
 0000:ffeee000       .debug$S                   0000000180000000     kernel32:KERNEL32.dll
 0000:ffeee000       .debug$S                   0000000180000000     kernel32:KERNEL32.dll
 0000:ffeee000       .debug$S                   0000000180000000     kernel32:KERNEL32.dll
 0000:ffeee000       .debug$S                   0000000180000000     kernel32:KERNEL32.dll
 0000:ffeee000       .debug$S                   0000000180000000     kernel32:KERNEL32.dll
 0000:ffeee000       .debug$S                   0000000180000000     kernel32:KERNEL32.dll
 0000:ffeee000       .debug$S                   0000000180000000     kernel32:KERNEL32.dll
 0000:ffeee000       .debug$S                   0000000180000000     kernel32:KERNEL32.dll
 0000:ffeee000       .debug$S                   0000000180000000     kernel32:KERNEL32.dll
 0000:ffeee000       .debug$S                   0000000180000000     kernel32:KERNEL32.dll
 0000:ffeee000       .debug$S                   0000000180000000     kernel32:KERNEL32.dll
 0000:ffeee000       .debug$S                   0000000180000000     kernel32:KERNEL32.dll
 0000:ffeee000       .debug$S                   0000000180000000     kernel32:KERNEL32.dll
 0000:ffeee000       .debug$S                   0000000180000000     kernel32:KERNEL32.dll
 0000:ffeee000       .debug$S                   0000000180000000     kernel32:KERNEL32.dll
 0000:ffeee000       .debug$S                   0000000180000000     kernel32:KERNEL32.dll
 0000:ffeee000       .debug$S                   0000000180000000     kernel32:KERNEL32.dll
 0000:ffeee000       .debug$S                   0000000180000000     iconv.exp
 0000:ffeee000       .debug$S                   0000000180000000     kernel32:KERNEL32.dll
 0000:ffeee000       .debug$S                   0000000180000000     kernel32:KERNEL32.dll
 0000:ffeee000       .debug$S                   0000000180000000     kernel32:KERNEL32.dll
 0000:ffeee000       .debug$S                   0000000180000000     kernel32:KERNEL32.dll
 0000:ffeee000       .debug$S                   0000000180000000     kernel32:KERNEL32.dll
 0000:ffeee000       .debug$S                   0000000180000000     kernel32:KERNEL32.dll
 0000:ffeee000       .debug$S                   0000000180000000     kernel32:KERNEL32.dll
 0000:ffeee000       .debug$S                   0000000180000000     kernel32:KERNEL32.dll
 0000:ffeee000       .debug$S                   0000000180000000     kernel32:KERNEL32.dll
 0000:ffeee000       .debug$S                   0000000180000000     kernel32:KERNEL32.dll
 0000:ffeee000       .debug$S                   0000000180000000     kernel32:KERNEL32.dll
 0000:ffeee000       .debug$S                   0000000180000000     kernel32:KERNEL32.dll
 0000:ffeee000       .debug$S                   0000000180000000     kernel32:KERNEL32.dll
 0000:ffeee000       .debug$S                   0000000180000000     kernel32:KERNEL32.dll
 0000:ffeee000       .debug$S                   0000000180000000     kernel32:KERNEL32.dll
 0000:ffeee000       .debug$S                   0000000180000000     kernel32:KERNEL32.dll
 0000:ffeee000       .debug$S                   0000000180000000     kernel32:KERNEL32.dll
 0000:ffeee000       .debug$S                   0000000180000000     kernel32:KERNEL32.dll
 0000:ffeee000       .debug$S                   0000000180000000     kernel32:KERNEL32.dll
 0000:ffeee000       .debug$S                   0000000180000000     kernel32:KERNEL32.dll
 0000:ffeee000       .debug$S                   0000000180000000     kernel32:KERNEL32.dll
 0000:ffeee000       .debug$S                   0000000180000000     kernel32:KERNEL32.dll
 0000:ffeee000       .debug$S                   0000000180000000     kernel32:KERNEL32.dll
 0000:ffeee000       .debug$S                   0000000180000000     kernel32:KERNEL32.dll
 0000:ffeee000       .debug$S                   0000000180000000     kernel32:KERNEL32.dll
 0000:ffeee000       .debug$S                   0000000180000000     kernel32:KERNEL32.dll
 0000:ffeee000       .debug$S                   0000000180000000     kernel32:KERNEL32.dll
 0000:ffeee000       .debug$S                   0000000180000000     kernel32:KERNEL32.dll
 0000:ffeee000       .debug$S                   0000000180000000     kernel32:KERNEL32.dll
 0000:ffeee000       .debug$S                   0000000180000000     kernel32:KERNEL32.dll
 0000:ffeee000       .debug$S                   0000000180000000     kernel32:KERNEL32.dll
 0000:ffeee000       .debug$S                   0000000180000000     kernel32:KERNEL32.dll
 0000:ffeee000       .debug$S                   0000000180000000     kernel32:KERNEL32.dll
 0000:ffeee000       .debug$S                   0000000180000000     kernel32:KERNEL32.dll
 0000:ffeee000       .debug$S                   0000000180000000     kernel32:KERNEL32.dll
 0000:ffeee000       .debug$S                   0000000180000000     kernel32:KERNEL32.dll
 0000:ffeee000       .debug$S                   0000000180000000     kernel32:KERNEL32.dll
 0000:ffeee000       .debug$S                   0000000180000000     kernel32:KERNEL32.dll
 0000:ffeee000       .debug$S                   0000000180000000     kernel32:KERNEL32.dll
 0000:ffeee000       .debug$S                   0000000180000000     kernel32:KERNEL32.dll
 0000:ffeee000       .debug$S                   0000000180000000     kernel32:KERNEL32.dll
 0000:ffeee000       .debug$S                   0000000180000000     kernel32:KERNEL32.dll
 0000:ffeee000       .debug$S                   0000000180000000     kernel32:KERNEL32.dll
 0000:ffeee000       .debug$S                   0000000180000000     kernel32:KERNEL32.dll
 0000:ffeee000       .debug$S                   0000000180000000     node:node.exe
 0000:ffeee000       .debug$S                   0000000180000000     node:node.exe
 0000:ffeee000       .debug$S                   0000000180000000     node:node.exe
 0000:ffeee000       .debug$S                   0000000180000000     node:node.exe
 0000:ffeee000       .debug$S                   0000000180000000     kernel32:KERNEL32.dll
 0000:ffeee000       .debug$S                   0000000180000000     node:node.exe
 0000:ffeee000       .debug$S                   0000000180000000     node:node.exe
 0000:ffeee000       .debug$S                   0000000180000000     node:node.exe
 0000:ffeee000       .debug$S                   0000000180000000     node:node.exe
 0000:ffeee000       .debug$S                   0000000180000000     node:node.exe
 0000:ffeee000       .debug$S                   0000000180000000     node:node.exe
 0000:ffeee000       .debug$S                   0000000180000000     node:node.exe
 0000:ffeee000       .debug$S                   0000000180000000     node:node.exe
 0000:ffeee000       .debug$S                   0000000180000000     node:node.exe
 0000:ffeee000       .debug$S                   0000000180000000     node:node.exe
 0000:ffeee000       .debug$S                   0000000180000000     node:node.exe
 0000:ffeee000       .debug$S                   0000000180000000     node:node.exe
 0000:ffeee000       .debug$S                   0000000180000000     node:node.exe
 0000:ffeee000       .debug$S                   0000000180000000     node:node.exe
 0000:ffeee000       .debug$S                   0000000180000000     node:node.exe
 0000:ffeee000       .debug$S                   0000000180000000     node:node.exe
 0000:ffeee000       .debug$S                   0000000180000000     node:node.exe
 0000:ffeee000       .debug$S                   0000000180000000     node:node.exe
 0000:ffeee000       .debug$S                   0000000180000000     node:node.exe
 0000:ffeee000       .debug$S                   0000000180000000     node:node.exe
 0000:ffeee000       .debug$S                   0000000180000000     node:node.exe
 0000:ffeee000       .debug$S                   0000000180000000     node:node.exe
 0000:ffeee000       .debug$S                   0000000180000000     node:node.exe
 0000:ffeee000       .debug$S                   0000000180000000     node:node.exe
 0000:ffeee000       .debug$S                   0000000180000000     node:node.exe
 0000:ffeee000       .debug$S                   0000000180000000     node:node.exe
 0000:ffeee000       .debug$S                   0000000180000000     node:node.exe
 0000:ffeee000       .debug$S                   0000000180000000     node:node.exe
 0000:ffeee000       .debug$S                   0000000180000000     node:node.exe
 0000:ffeee000       .debug$S                   0000000180000000     node:node.exe
 0000:ffeee000       .debug$S                   0000000180000000     node:node.exe
 0000:ffeee000       .debug$S                   0000000180000000     node:node.exe
 0000:ffeee000       .debug$S                   0000000180000000     node:node.exe
 0000:ffeee000       .debug$S                   0000000180000000     node:node.exe
 0000:ffeee000       .debug$S                   0000000180000000     node:node.exe
 0000:ffeee000       .debug$S                   0000000180000000     node:node.exe
 0000:ffeee000       .debug$S                   0000000180000000     node:node.exe
 0000:ffeee000       .debug$S                   0000000180000000     node:node.exe
 0000:ffeee000       .debug$S                   0000000180000000     node:node.exe
 0000:ffeee000       .debug$S                   0000000180000000     kernel32:KERNEL32.dll
 0000:ffeee000       .debug$S                   0000000180000000     kernel32:KERNEL32.dll
 0000:ffeee000       .debug$S                   0000000180000000     kernel32:KERNEL32.dll
 0000:ffeee000       .debug$S                   0000000180000000     kernel32:KERNEL32.dll
 0000:ffeee000       .debug$S                   0000000180000000     kernel32:KERNEL32.dll
 0000:ffeee000       .debug$S                   0000000180000000     kernel32:KERNEL32.dll
 0000:ffeee000       .debug$S                   0000000180000000     kernel32:KERNEL32.dll
 0000:ffeee000       .debug$S                   0000000180000000     kernel32:KERNEL32.dll
 0000:ffeee000       .debug$S                   0000000180000000     kernel32:KERNEL32.dll
 0001:00000000       ??__E?object_template@Iconv@?A0x9d7288fc@@2V?$Persistent@VObjectTemplate@v8@@V?$NonCopyablePersistentTraits@VObjectTemplate@v8@@@2@@Nan@@A@@YAXXZ 0000000180001000 f   binding.obj
 0001:00000020       ?FunctionCallbackWrapper@imp@Nan@@YAXAEBV?$FunctionCallbackInfo@VValue@v8@@@v8@@@Z 0000000180001020 f   binding.obj
 0001:00000260       ?WeakCallback@Iconv@?A0x9d7288fc@@SAXAEBV?$WeakCallbackInfo@UIconv@?A0x9d7288fc@@@Nan@@@Z 0000000180001260 f   binding.obj
 0001:00000290       ?Initialize@Iconv@?A0x9d7288fc@@SAXV?$Local@VObject@v8@@@v8@@@Z 0000000180001290 f   binding.obj
 0001:000005b0       ?Make@Iconv@?A0x9d7288fc@@SAXAEBV?$FunctionCallbackInfo@VValue@v8@@@Nan@@@Z 00000001800015b0 f   binding.obj
 0001:00000740       ?Convert@Iconv@?A0x9d7288fc@@SAXAEBV?$FunctionCallbackInfo@VValue@v8@@@Nan@@@Z 0000000180001740 f   binding.obj
 0001:00000a10       _register_libiconv         0000000180001a10 f   binding.obj
 0001:00000aa0       ascii_mbtowc               0000000180001aa0 f   iconv.obj
 0001:00000ac0       ascii_wctomb               0000000180001ac0 f   iconv.obj
 0001:00000ae0       utf8_mbtowc                0000000180001ae0 f   iconv.obj
 0001:00000dd0       utf8_wctomb                0000000180001dd0 f   iconv.obj
 0001:00000ed4       $LN24                      0000000180001ed4     iconv.obj
 0001:00000ef0       ucs2_mbtowc                0000000180001ef0 f   iconv.obj
 0001:00000f90       ucs2_wctomb                0000000180001f90 f   iconv.obj
 0001:00000fe0       ucs2be_mbtowc              0000000180001fe0 f   iconv.obj
 0001:00001010       ucs2be_wctomb              0000000180002010 f   iconv.obj
 0001:00001050       ucs2le_mbtowc              0000000180002050 f   iconv.obj
 0001:00001080       ucs2le_wctomb              0000000180002080 f   iconv.obj
 0001:000010c0       ucs4_mbtowc                00000001800020c0 f   iconv.obj
 0001:00001190       ucs4_wctomb                0000000180002190 f   iconv.obj
 0001:000011d0       ucs4be_mbtowc              00000001800021d0 f   iconv.obj
 0001:00001210       ucs4be_wctomb              0000000180002210 f   iconv.obj
 0001:00001240       ucs4le_mbtowc              0000000180002240 f   iconv.obj
 0001:00001280       ucs4le_wctomb              0000000180002280 f   iconv.obj
 0001:000012b0       utf16_mbtowc               00000001800022b0 f   iconv.obj
 0001:000013d0       utf16_wctomb               00000001800023d0 f   iconv.obj
 0001:000014a0       utf16be_mbtowc             00000001800024a0 f   iconv.obj
 0001:00001530       utf16be_wctomb             0000000180002530 f   iconv.obj
 0001:000015c0       utf16le_mbtowc             00000001800025c0 f   iconv.obj
 0001:00001650       utf16le_wctomb             0000000180002650 f   iconv.obj
 0001:000016d0       utf32_mbtowc               00000001800026d0 f   iconv.obj
 0001:000017b0       utf32_wctomb               00000001800027b0 f   iconv.obj
 0001:00001820       utf32be_mbtowc             0000000180002820 f   iconv.obj
 0001:00001870       utf32be_wctomb             0000000180002870 f   iconv.obj
 0001:000018c0       utf32le_mbtowc             00000001800028c0 f   iconv.obj
 0001:00001910       utf32le_wctomb             0000000180002910 f   iconv.obj
 0001:00001960       utf7_mbtowc                0000000180002960 f   iconv.obj
 0001:00001bf0       utf7_wctomb                0000000180002bf0 f   iconv.obj
 0001:00001f00       utf7_reset                 0000000180002f00 f   iconv.obj
 0001:00001fb0       ucs2internal_mbtowc        0000000180002fb0 f   iconv.obj
 0001:00001ff0       ucs2internal_wctomb        0000000180002ff0 f   iconv.obj
 0001:00002030       ucs2swapped_mbtowc         0000000180003030 f   iconv.obj
 0001:00002070       ucs2swapped_wctomb         0000000180003070 f   iconv.obj
 0001:000020b0       ucs4internal_mbtowc        00000001800030b0 f   iconv.obj
 0001:000020d0       ucs4internal_wctomb        00000001800030d0 f   iconv.obj
 0001:000020f0       ucs4swapped_mbtowc         00000001800030f0 f   iconv.obj
 0001:00002110       ucs4swapped_wctomb         0000000180003110 f   iconv.obj
 0001:00002130       c99_mbtowc                 0000000180003130 f   iconv.obj
 0001:000022d0       c99_wctomb                 00000001800032d0 f   iconv.obj
 0001:00002350       java_mbtowc                0000000180003350 f   iconv.obj
 0001:00002500       java_wctomb                0000000180003500 f   iconv.obj
 0001:000026a0       iso8859_1_mbtowc           00000001800036a0 f   iconv.obj
 0001:000026b0       iso8859_1_wctomb           00000001800036b0 f   iconv.obj
 0001:000026d0       iso8859_2_mbtowc           00000001800036d0 f   iconv.obj
 0001:00002700       iso8859_2_wctomb           0000000180003700 f   iconv.obj
 0001:00002770       iso8859_3_mbtowc           0000000180003770 f   iconv.obj
 0001:000027b0       iso8859_3_wctomb           00000001800037b0 f   iconv.obj
 0001:00002840       iso8859_4_mbtowc           0000000180003840 f   iconv.obj
 0001:00002870       iso8859_4_wctomb           0000000180003870 f   iconv.obj
 0001:000028e0       iso8859_5_mbtowc           00000001800038e0 f   iconv.obj
 0001:00002910       iso8859_5_wctomb           0000000180003910 f   iconv.obj
 0001:00002980       iso8859_6_mbtowc           0000000180003980 f   iconv.obj
 0001:000029c0       iso8859_6_wctomb           00000001800039c0 f   iconv.obj
 0001:00002a30       iso8859_7_mbtowc           0000000180003a30 f   iconv.obj
 0001:00002a70       iso8859_7_wctomb           0000000180003a70 f   iconv.obj
 0001:00002b20       iso8859_8_mbtowc           0000000180003b20 f   iconv.obj
 0001:00002b60       iso8859_8_wctomb           0000000180003b60 f   iconv.obj
 0001:00002bf0       iso8859_9_mbtowc           0000000180003bf0 f   iconv.obj
 0001:00002c20       iso8859_9_wctomb           0000000180003c20 f   iconv.obj
 0001:00002c90       iso8859_10_mbtowc          0000000180003c90 f   iconv.obj
 0001:00002cc0       iso8859_10_wctomb          0000000180003cc0 f   iconv.obj
 0001:00002d10       iso8859_11_mbtowc          0000000180003d10 f   iconv.obj
 0001:00002d50       iso8859_11_wctomb          0000000180003d50 f   iconv.obj
 0001:00002d90       iso8859_13_mbtowc          0000000180003d90 f   iconv.obj
 0001:00002dc0       iso8859_13_wctomb          0000000180003dc0 f   iconv.obj
 0001:00002e30       iso8859_14_mbtowc          0000000180003e30 f   iconv.obj
 0001:00002e60       iso8859_14_wctomb          0000000180003e60 f   iconv.obj
 0001:00002f40       iso8859_15_mbtowc          0000000180003f40 f   iconv.obj
 0001:00002f70       iso8859_15_wctomb          0000000180003f70 f   iconv.obj
 0001:00002ff0       iso8859_16_mbtowc          0000000180003ff0 f   iconv.obj
 0001:00003020       iso8859_16_wctomb          0000000180004020 f   iconv.obj
 0001:000030c0       koi8_r_mbtowc              00000001800040c0 f   iconv.obj
 0001:000030f0       koi8_r_wctomb              00000001800040f0 f   iconv.obj
 0001:000031d0       koi8_u_mbtowc              00000001800041d0 f   iconv.obj
 0001:00003200       koi8_u_wctomb              0000000180004200 f   iconv.obj
 0001:000032e0       koi8_ru_mbtowc             00000001800042e0 f   iconv.obj
 0001:00003310       koi8_ru_wctomb             0000000180004310 f   iconv.obj
 0001:000033f0       cp1250_mbtowc              00000001800043f0 f   iconv.obj
 0001:00003430       cp1250_wctomb              0000000180004430 f   iconv.obj
 0001:000034e0       cp1251_mbtowc              00000001800044e0 f   iconv.obj
 0001:00003520       cp1251_wctomb              0000000180004520 f   iconv.obj
 0001:000035e0       cp1252_mbtowc              00000001800045e0 f   iconv.obj
 0001:00003620       cp1252_wctomb              0000000180004620 f   iconv.obj
 0001:000036e0       cp1253_mbtowc              00000001800046e0 f   iconv.obj
 0001:00003720       cp1253_wctomb              0000000180004720 f   iconv.obj
 0001:000037e0       cp1254_mbtowc              00000001800047e0 f   iconv.obj
 0001:00003880       cp1254_wctomb              0000000180004880 f   iconv.obj
 0001:00003970       normal_flushwc             0000000180004970 f   iconv.obj
 0001:00003990       cp1255_mbtowc              0000000180004990 f   iconv.obj
 0001:00003ba8       $LN43                      0000000180004ba8     iconv.obj
 0001:00003bf0       cp1255_wctomb              0000000180004bf0 f   iconv.obj
 0001:00003e00       cp1256_mbtowc              0000000180004e00 f   iconv.obj
 0001:00003e30       cp1256_wctomb              0000000180004e30 f   iconv.obj
 0001:00003f20       cp1257_mbtowc              0000000180004f20 f   iconv.obj
 0001:00003f60       cp1257_wctomb              0000000180004f60 f   iconv.obj
 0001:00004010       cp1258_mbtowc              0000000180005010 f   iconv.obj
 0001:000041e0       cp1258_wctomb              00000001800051e0 f   iconv.obj
 0001:00004400       cp850_mbtowc               0000000180005400 f   iconv.obj
 0001:00004430       cp850_wctomb               0000000180005430 f   iconv.obj
 0001:000044e0       cp862_mbtowc               00000001800054e0 f   iconv.obj
 0001:00004510       cp862_wctomb               0000000180005510 f   iconv.obj
 0001:00004650       cp866_mbtowc               0000000180005650 f   iconv.obj
 0001:000046a0       cp866_wctomb               00000001800056a0 f   iconv.obj
 0001:00004770       cp1131_mbtowc              0000000180005770 f   iconv.obj
 0001:000047a0       cp1131_wctomb              00000001800057a0 f   iconv.obj
 0001:00004850       mac_roman_mbtowc           0000000180005850 f   iconv.obj
 0001:00004890       mac_roman_wctomb           0000000180005890 f   iconv.obj
 0001:000049e0       mac_centraleurope_mbtowc   00000001800059e0 f   iconv.obj
 0001:00004a10       mac_centraleurope_wctomb   0000000180005a10 f   iconv.obj
 0001:00004b00       mac_iceland_mbtowc         0000000180005b00 f   iconv.obj
 0001:00004b40       mac_iceland_wctomb         0000000180005b40 f   iconv.obj
 0001:00004c60       mac_croatian_mbtowc        0000000180005c60 f   iconv.obj
 0001:00004ca0       mac_croatian_wctomb        0000000180005ca0 f   iconv.obj
 0001:00004da0       mac_romania_mbtowc         0000000180005da0 f   iconv.obj
 0001:00004de0       mac_romania_wctomb         0000000180005de0 f   iconv.obj
 0001:00004ee0       mac_cyrillic_mbtowc        0000000180005ee0 f   iconv.obj
 0001:00004f10       mac_cyrillic_wctomb        0000000180005f10 f   iconv.obj
 0001:00005010       mac_ukraine_mbtowc         0000000180006010 f   iconv.obj
 0001:00005040       mac_ukraine_wctomb         0000000180006040 f   iconv.obj
 0001:00005140       mac_greek_mbtowc           0000000180006140 f   iconv.obj
 0001:00005180       mac_greek_wctomb           0000000180006180 f   iconv.obj
 0001:00005260       mac_turkish_mbtowc         0000000180006260 f   iconv.obj
 0001:000052a0       mac_turkish_wctomb         00000001800062a0 f   iconv.obj
 0001:000053c0       mac_hebrew_mbtowc          00000001800063c0 f   iconv.obj
 0001:00005400       mac_hebrew_wctomb          0000000180006400 f   iconv.obj
 0001:000054d0       mac_arabic_mbtowc          00000001800064d0 f   iconv.obj
 0001:00005510       mac_arabic_wctomb          0000000180006510 f   iconv.obj
 0001:00005590       mac_thai_mbtowc            0000000180006590 f   iconv.obj
 0001:000055d0       mac_thai_wctomb            00000001800065d0 f   iconv.obj
 0001:000056a0       hp_roman8_mbtowc           00000001800066a0 f   iconv.obj
 0001:000056e0       hp_roman8_wctomb           00000001800066e0 f   iconv.obj
 0001:000057a0       nextstep_mbtowc            00000001800067a0 f   iconv.obj
 0001:000057e0       nextstep_wctomb            00000001800067e0 f   iconv.obj
 0001:000058c0       armscii_8_mbtowc           00000001800068c0 f   iconv.obj
 0001:00005900       armscii_8_wctomb           0000000180006900 f   iconv.obj
 0001:000059b0       georgian_academy_mbtowc    00000001800069b0 f   iconv.obj
 0001:00005a00       georgian_academy_wctomb    0000000180006a00 f   iconv.obj
 0001:00005af0       georgian_ps_mbtowc         0000000180006af0 f   iconv.obj
 0001:00005b50       georgian_ps_wctomb         0000000180006b50 f   iconv.obj
 0001:00005c50       koi8_t_mbtowc              0000000180006c50 f   iconv.obj
 0001:00005c90       koi8_t_wctomb              0000000180006c90 f   iconv.obj
 0001:00005d50       pt154_mbtowc               0000000180006d50 f   iconv.obj
 0001:00005d90       pt154_wctomb               0000000180006d90 f   iconv.obj
 0001:00005e30       rk1048_mbtowc              0000000180006e30 f   iconv.obj
 0001:00005e70       rk1048_wctomb              0000000180006e70 f   iconv.obj
 0001:00005f40       mulelao_mbtowc             0000000180006f40 f   iconv.obj
 0001:00005f80       mulelao_wctomb             0000000180006f80 f   iconv.obj
 0001:00005fd0       cp1133_mbtowc              0000000180006fd0 f   iconv.obj
 0001:00006040       cp1133_wctomb              0000000180007040 f   iconv.obj
 0001:000060b0       tis620_mbtowc              00000001800070b0 f   iconv.obj
 0001:000060f0       tis620_wctomb              00000001800070f0 f   iconv.obj
 0001:00006130       cp874_mbtowc               0000000180007130 f   iconv.obj
 0001:00006170       cp874_wctomb               0000000180007170 f   iconv.obj
 0001:00006200       viscii_mbtowc              0000000180007200 f   iconv.obj
 0001:00006250       viscii_wctomb              0000000180007250 f   iconv.obj
 0001:000062e0       tcvn_mbtowc                00000001800072e0 f   iconv.obj
 0001:000064b0       tcvn_wctomb                00000001800074b0 f   iconv.obj
 0001:00006640       iso646_jp_mbtowc           0000000180007640 f   iconv.obj
 0001:00006680       iso646_jp_wctomb           0000000180007680 f   iconv.obj
 0001:000066d0       jisx0201_mbtowc            00000001800076d0 f   iconv.obj
 0001:00006730       jisx0201_wctomb            0000000180007730 f   iconv.obj
 0001:00006790       jisx0208_mbtowc            0000000180007790 f   iconv.obj
 0001:00006830       jisx0208_wctomb            0000000180007830 f   iconv.obj
 0001:00006a30       jisx0212_mbtowc            0000000180007a30 f   iconv.obj
 0001:00006b40       jisx0212_wctomb            0000000180007b40 f   iconv.obj
 0001:00006ca0       iso646_cn_mbtowc           0000000180007ca0 f   iconv.obj
 0001:00006ce0       iso646_cn_wctomb           0000000180007ce0 f   iconv.obj
 0001:00006d30       gb2312_mbtowc              0000000180007d30 f   iconv.obj
 0001:00006dd0       gb2312_wctomb              0000000180007dd0 f   iconv.obj
 0001:00006f90       isoir165ext_mbtowc         0000000180007f90 f   iconv.obj
 0001:00007030       isoir165ext_wctomb         0000000180008030 f   iconv.obj
 0001:00007290       isoir165_mbtowc            0000000180008290 f   iconv.obj
 0001:00007430       isoir165_wctomb            0000000180008430 f   iconv.obj
 0001:00007530       gbkext_inv_wctomb          0000000180008530 f   iconv.obj
 0001:00007740       gbk_mbtowc                 0000000180008740 f   iconv.obj
 0001:00007a30       gbk_wctomb                 0000000180008a30 f   iconv.obj
 0001:00007c40       cns11643_1_mbtowc          0000000180008c40 f   iconv.obj
 0001:00007d50       cns11643_2_mbtowc          0000000180008d50 f   iconv.obj
 0001:00007db0       cns11643_3_mbtowc          0000000180008db0 f   iconv.obj
 0001:00007e50       cns11643_4_mbtowc          0000000180008e50 f   iconv.obj
 0001:00007ef0       cns11643_5_mbtowc          0000000180008ef0 f   iconv.obj
 0001:00007f60       cns11643_6_mbtowc          0000000180008f60 f   iconv.obj
 0001:00007fd0       cns11643_7_mbtowc          0000000180008fd0 f   iconv.obj
 0001:00008040       cns11643_inv_wctomb        0000000180009040 f   iconv.obj
 0001:00008270       big5_mbtowc                0000000180009270 f   iconv.obj
 0001:00008320       big5_wctomb                0000000180009320 f   iconv.obj
 0001:00008510       ksc5601_mbtowc             0000000180009510 f   iconv.obj
 0001:000085f0       ksc5601_wctomb             00000001800095f0 f   iconv.obj
 0001:000087d0       johab_hangul_mbtowc        00000001800097d0 f   iconv.obj
 0001:00008910       johab_hangul_wctomb        0000000180009910 f   iconv.obj
 0001:000089f0       johab_hangul_decompose     00000001800099f0 f   iconv.obj
 0001:00008af0       euc_jp_mbtowc              0000000180009af0 f   iconv.obj
 0001:00008cf0       euc_jp_wctomb              0000000180009cf0 f   iconv.obj
 0001:00008ed0       sjis_mbtowc                0000000180009ed0 f   iconv.obj
 0001:00009080       sjis_wctomb                000000018000a080 f   iconv.obj
 0001:00009260       cp932ext_mbtowc            000000018000a260 f   iconv.obj
 0001:00009360       cp932ext_wctomb            000000018000a360 f   iconv.obj
 0001:00009660       cp932_mbtowc               000000018000a660 f   iconv.obj
 0001:00009840       cp932_wctomb               000000018000a840 f   iconv.obj
 0001:00009b30       iso2022_jp_mbtowc          000000018000ab30 f   iconv.obj
 0001:00009d70       iso2022_jp_wctomb          000000018000ad70 f   iconv.obj
 0001:00009f00       iso2022_jp_reset           000000018000af00 f   iconv.obj
 0001:00009f00       iso2022_jp1_reset          000000018000af00 f   iconv.obj
 0001:00009f30       iso2022_jp1_mbtowc         000000018000af30 f   iconv.obj
 0001:0000a1a0       iso2022_jp1_wctomb         000000018000b1a0 f   iconv.obj
 0001:0000a380       iso2022_jp2_mbtowc         000000018000b380 f   iconv.obj
 0001:0000a858       $LN143                     000000018000b858     iconv.obj
 0001:0000a880       iso2022_jp2_wctomb         000000018000b880 f   iconv.obj
 0001:0000afa4       $LN150                     000000018000bfa4     iconv.obj
 0001:0000afc8       $LN149                     000000018000bfc8     iconv.obj
 0001:0000b050       iso2022_jp2_reset          000000018000c050 f   iconv.obj
 0001:0000b080       euc_cn_mbtowc              000000018000c080 f   iconv.obj
 0001:0000b140       euc_cn_wctomb              000000018000c140 f   iconv.obj
 0001:0000b1e0       ces_gbk_mbtowc             000000018000c1e0 f   iconv.obj
 0001:0000b220       ces_gbk_wctomb             000000018000c220 f   iconv.obj
 0001:0000b3c0       cp936_mbtowc               000000018000c3c0 f   iconv.obj
 0001:0000b520       cp936_wctomb               000000018000c520 f   iconv.obj
 0001:0000b640       gb18030ext_mbtowc          000000018000c640 f   iconv.obj
 0001:0000b978       $LN75                      000000018000c978     iconv.obj
 0001:0000b9a0       $LN74                      000000018000c9a0     iconv.obj
 0001:0000ba00       gb18030ext_wctomb          000000018000ca00 f   iconv.obj
 0001:0000bdd0       gb18030uni_mbtowc          000000018000cdd0 f   iconv.obj
 0001:0000bef0       gb18030uni_wctomb          000000018000cef0 f   iconv.obj
 0001:0000c020       gb18030_mbtowc             000000018000d020 f   iconv.obj
 0001:0000c210       gb18030_wctomb             000000018000d210 f   iconv.obj
 0001:0000c4a0       iso2022_cn_mbtowc          000000018000d4a0 f   iconv.obj
 0001:0000c6f0       iso2022_cn_wctomb          000000018000d6f0 f   iconv.obj
 0001:0000c930       iso2022_cn_reset           000000018000d930 f   iconv.obj
 0001:0000c930       iso2022_cn_ext_reset       000000018000d930 f   iconv.obj
 0001:0000c930       iso2022_kr_reset           000000018000d930 f   iconv.obj
 0001:0000c950       iso2022_cn_ext_mbtowc      000000018000d950 f   iconv.obj
 0001:0000cddc       $LN119                     000000018000dddc     iconv.obj
 0001:0000ce00       iso2022_cn_ext_wctomb      000000018000de00 f   iconv.obj
 0001:0000d320       hz_mbtowc                  000000018000e320 f   iconv.obj
 0001:0000d4a0       hz_wctomb                  000000018000e4a0 f   iconv.obj
 0001:0000d5a0       hz_reset                   000000018000e5a0 f   iconv.obj
 0001:0000d5c0       euc_tw_mbtowc              000000018000e5c0 f   iconv.obj
 0001:0000d888       $LN64                      000000018000e888     iconv.obj
 0001:0000d8d0       euc_tw_wctomb              000000018000e8d0 f   iconv.obj
 0001:0000d9a0       ces_big5_mbtowc            000000018000e9a0 f   iconv.obj
 0001:0000d9f0       ces_big5_wctomb            000000018000e9f0 f   iconv.obj
 0001:0000da80       cp950ext_wctomb            000000018000ea80 f   iconv.obj
 0001:0000dc90       cp950_mbtowc               000000018000ec90 f   iconv.obj
 0001:0000dea0       cp950_wctomb               000000018000eea0 f   iconv.obj
 0001:0000e200       hkscs1999_mbtowc           000000018000f200 f   iconv.obj
 0001:0000e350       hkscs1999_wctomb           000000018000f350 f   iconv.obj
 0001:0000e640       big5hkscs1999_mbtowc       000000018000f640 f   iconv.obj
 0001:0000e750       big5hkscs1999_wctomb       000000018000f750 f   iconv.obj
 0001:0000e8d0       big5hkscs1999_reset        000000018000f8d0 f   iconv.obj
 0001:0000e8d0       big5hkscs2004_reset        000000018000f8d0 f   iconv.obj
 0001:0000e8d0       big5hkscs2001_reset        000000018000f8d0 f   iconv.obj
 0001:0000e8d0       big5hkscs2008_reset        000000018000f8d0 f   iconv.obj
 0001:0000e900       hkscs2001_mbtowc           000000018000f900 f   iconv.obj
 0001:0000e990       hkscs2001_wctomb           000000018000f990 f   iconv.obj
 0001:0000f230       big5hkscs2001_mbtowc       0000000180010230 f   iconv.obj
 0001:0000f350       big5hkscs2001_wctomb       0000000180010350 f   iconv.obj
 0001:0000f4f0       hkscs2004_mbtowc           00000001800104f0 f   iconv.obj
 0001:0000f5d0       hkscs2004_wctomb           00000001800105d0 f   iconv.obj
 0001:0000fec0       big5hkscs2004_mbtowc       0000000180010ec0 f   iconv.obj
 0001:0000fff0       big5hkscs2004_wctomb       0000000180010ff0 f   iconv.obj
 0001:000101b0       hkscs2008_mbtowc           00000001800111b0 f   iconv.obj
 0001:00010240       hkscs2008_wctomb           0000000180011240 f   iconv.obj
 0001:00010940       big5hkscs2008_mbtowc       0000000180011940 f   iconv.obj
 0001:00010a90       big5hkscs2008_wctomb       0000000180011a90 f   iconv.obj
 0001:00010c70       euc_kr_mbtowc              0000000180011c70 f   iconv.obj
 0001:00010cf0       euc_kr_wctomb              0000000180011cf0 f   iconv.obj
 0001:00010d90       uhc_1_mbtowc               0000000180011d90 f   iconv.obj
 0001:00010e50       uhc_1_wctomb               0000000180011e50 f   iconv.obj
 0001:00010f50       uhc_2_mbtowc               0000000180011f50 f   iconv.obj
 0001:00011010       uhc_2_wctomb               0000000180012010 f   iconv.obj
 0001:00011110       cp949_mbtowc               0000000180012110 f   iconv.obj
 0001:00011240       cp949_wctomb               0000000180012240 f   iconv.obj
 0001:000113a0       johab_mbtowc               00000001800123a0 f   iconv.obj
 0001:00011490       johab_wctomb               0000000180012490 f   iconv.obj
 0001:00011630       iso2022_kr_mbtowc          0000000180012630 f   iconv.obj
 0001:000117b0       iso2022_kr_wctomb          00000001800127b0 f   iconv.obj
 0001:000118e0       cp856_mbtowc               00000001800128e0 f   iconv.obj
 0001:00011920       cp856_wctomb               0000000180012920 f   iconv.obj
 0001:000119d0       cp922_mbtowc               00000001800129d0 f   iconv.obj
 0001:00011a60       cp922_wctomb               0000000180012a60 f   iconv.obj
 0001:00011ad0       cp1046_mbtowc              0000000180012ad0 f   iconv.obj
 0001:00011b10       cp1046_wctomb              0000000180012b10 f   iconv.obj
 0001:00011c00       cp1124_mbtowc              0000000180012c00 f   iconv.obj
 0001:00011c30       cp1124_wctomb              0000000180012c30 f   iconv.obj
 0001:00011cb0       cp1129_mbtowc              0000000180012cb0 f   iconv.obj
 0001:00011ce0       cp1129_wctomb              0000000180012ce0 f   iconv.obj
 0001:00011d50       cp1161_mbtowc              0000000180012d50 f   iconv.obj
 0001:00011d90       cp1161_wctomb              0000000180012d90 f   iconv.obj
 0001:00011e20       cp1162_mbtowc              0000000180012e20 f   iconv.obj
 0001:00011e80       cp1162_wctomb              0000000180012e80 f   iconv.obj
 0001:00011f20       cp1163_mbtowc              0000000180012f20 f   iconv.obj
 0001:00011f70       cp1163_wctomb              0000000180012f70 f   iconv.obj
 0001:00012030       dec_kanji_mbtowc           0000000180013030 f   iconv.obj
 0001:000120f0       dec_kanji_wctomb           00000001800130f0 f   iconv.obj
 0001:00012190       dec_hanyu_mbtowc           0000000180013190 f   iconv.obj
 0001:000122d0       dec_hanyu_wctomb           00000001800132d0 f   iconv.obj
 0001:000123e0       cp437_mbtowc               00000001800133e0 f   iconv.obj
 0001:00012410       cp437_wctomb               0000000180013410 f   iconv.obj
 0001:00012530       cp737_mbtowc               0000000180013530 f   iconv.obj
 0001:00012560       cp737_wctomb               0000000180013560 f   iconv.obj
 0001:00012640       cp775_mbtowc               0000000180013640 f   iconv.obj
 0001:00012670       cp775_wctomb               0000000180013670 f   iconv.obj
 0001:00012720       cp852_mbtowc               0000000180013720 f   iconv.obj
 0001:00012750       cp852_wctomb               0000000180013750 f   iconv.obj
 0001:000127e0       cp853_mbtowc               00000001800137e0 f   iconv.obj
 0001:00012820       cp853_wctomb               0000000180013820 f   iconv.obj
 0001:000128f0       cp855_mbtowc               00000001800138f0 f   iconv.obj
 0001:00012920       cp855_wctomb               0000000180013920 f   iconv.obj
 0001:000129d0       cp857_mbtowc               00000001800139d0 f   iconv.obj
 0001:00012a10       cp857_wctomb               0000000180013a10 f   iconv.obj
 0001:00012aa0       cp858_mbtowc               0000000180013aa0 f   iconv.obj
 0001:00012ae0       cp858_wctomb               0000000180013ae0 f   iconv.obj
 0001:00012b90       cp860_mbtowc               0000000180013b90 f   iconv.obj
 0001:00012bc0       cp860_wctomb               0000000180013bc0 f   iconv.obj
 0001:00012cc0       cp861_mbtowc               0000000180013cc0 f   iconv.obj
 0001:00012cf0       cp861_wctomb               0000000180013cf0 f   iconv.obj
 0001:00012e10       cp863_mbtowc               0000000180013e10 f   iconv.obj
 0001:00012e40       cp863_wctomb               0000000180013e40 f   iconv.obj
 0001:00012f60       cp864_mbtowc               0000000180013f60 f   iconv.obj
 0001:00012fd0       cp864_wctomb               0000000180013fd0 f   iconv.obj
 0001:00013130       cp865_mbtowc               0000000180014130 f   iconv.obj
 0001:00013160       cp865_wctomb               0000000180014160 f   iconv.obj
 0001:00013280       cp869_mbtowc               0000000180014280 f   iconv.obj
 0001:000132c0       cp869_wctomb               00000001800142c0 f   iconv.obj
 0001:00013380       cp1125_mbtowc              0000000180014380 f   iconv.obj
 0001:000133d0       cp1125_wctomb              00000001800143d0 f   iconv.obj
 0001:00013490       jisx0213_to_ucs4           0000000180014490 f   iconv.obj
 0001:00013540       ucs4_to_jisx0213           0000000180014540 f   iconv.obj
 0001:00013610       euc_jisx0213_mbtowc        0000000180014610 f   iconv.obj
 0001:00013740       euc_jisx0213_wctomb        0000000180014740 f   iconv.obj
 0001:00013920       euc_jisx0213_reset         0000000180014920 f   iconv.obj
 0001:00013920       shift_jisx0213_reset       0000000180014920 f   iconv.obj
 0001:00013950       shift_jisx0213_mbtowc      0000000180014950 f   iconv.obj
 0001:00013ac0       shift_jisx0213_wctomb      0000000180014ac0 f   iconv.obj
 0001:00013d10       iso2022_jp3_mbtowc         0000000180014d10 f   iconv.obj
 0001:00014070       $LN95                      0000000180015070     iconv.obj
 0001:00014090       iso2022_jp3_flushwc        0000000180015090 f   iconv.obj
 0001:000140c0       iso2022_jp3_wctomb         00000001800150c0 f   iconv.obj
 0001:000144c0       iso2022_jp3_reset          00000001800154c0 f   iconv.obj
 0001:00014560       big5_2003_mbtowc           0000000180015560 f   iconv.obj
 0001:00014890       big5_2003_wctomb           0000000180015890 f   iconv.obj
 0001:00015070       $LN155                     0000000180016070     iconv.obj
 0001:000150cc       $LN154                     00000001800160cc     iconv.obj
 0001:000151d0       tds565_mbtowc              00000001800161d0 f   iconv.obj
 0001:00015210       tds565_wctomb              0000000180016210 f   iconv.obj
 0001:000152a0       atarist_mbtowc             00000001800162a0 f   iconv.obj
 0001:000152d0       atarist_wctomb             00000001800162d0 f   iconv.obj
 0001:00015410       riscos1_mbtowc             0000000180016410 f   iconv.obj
 0001:00015440       riscos1_wctomb             0000000180016440 f   iconv.obj
 0001:00015540       unicode_transliterate      0000000180016540 f   iconv.obj
 0001:00015bc0       uc_to_mb_write_replacement 0000000180016bc0 f   iconv.obj
 0001:00015c10       mb_to_uc_write_replacement 0000000180016c10 f   iconv.obj
 0001:00015db0       unicode_loop_convert       0000000180016db0 f   iconv.obj
 0001:00016124       $LN53                      0000000180017124     iconv.obj
 0001:00016130       $LN52                      0000000180017130     iconv.obj
 0001:00016144       $LN51                      0000000180017144     iconv.obj
 0001:00016150       $LN50                      0000000180017150     iconv.obj
 0001:00016170       unicode_loop_reset         0000000180017170 f   iconv.obj
 0001:000163a0       aliases_hash               00000001800173a0 f   iconv.obj
 0001:00016478       $LN15                      0000000180017478     iconv.obj
 0001:00016930       ?load_exe_hook@@YAP6A_JXZIPEAUDelayLoadInfo@@@Z 0000000180017930 f   win_delay_load_hook.obj
 0001:00016ba0       $$000000                   0000000180017ba0     LIBCMT:_amdsecgs_.obj
 0001:00016ff4       ?dllmain_crt_dispatch@@YAHQEAUHINSTANCE__@@KQEAX@Z 0000000180017ff4 f   LIBCMT:dll_dllmain.obj
 0001:00017044       ?dllmain_crt_process_attach@@YAHQEAUHINSTANCE__@@QEAX@Z 0000000180018044 f   LIBCMT:dll_dllmain.obj
 0001:00017170       ?dllmain_crt_process_detach@@YAH_N@Z 0000000180018170 f   LIBCMT:dll_dllmain.obj
 0001:000171f4       ?dllmain_dispatch@@YAHQEAUHINSTANCE__@@KQEAX@Z 00000001800181f4 f   LIBCMT:dll_dllmain.obj
 0001:000172ec       ?dllmain_raw@@YAHQEAUHINSTANCE__@@KQEAX@Z 00000001800182ec f   LIBCMT:dll_dllmain.obj
 0001:00017538       capture_current_context    0000000180018538 f   LIBCMT:gs_report.obj
 0001:000175a8       capture_previous_context   00000001800185a8 f   LIBCMT:gs_report.obj
 0001:000180e0       $$000000                   00000001800190e0     libvcruntime:memset.obj
 0001:000181cc       MsetTab                    00000001800191cc     libvcruntime:memset.obj
 0001:000184c8       ?try_get_function@@YAPEAXW4function_id@?A0x679b24ab@@QEBDQEBW4module_id@2@2@Z 00000001800194c8 f   libvcruntime:winapi_downlevel.obj
 0001:00018920       $$000000                   0000000180019920     libvcruntime:_jmpuwind_.obj
 0001:00018ad0       ?shortsort@@YAXPEAD0_KP6AHPEBX2@Z@Z 0000000180019ad0 f   libucrt:qsort.obj
 0001:000192cc       ?atexit_exception_filter@@YAHK@Z 000000018001a2cc f   libucrt:exit.obj
 0001:000192d8       ?common_exit@@YAXHW4_crt_exit_cleanup_mode@@W4_crt_exit_return_mode@@@Z 000000018001a2d8 f   libucrt:exit.obj
 0001:00019444       ?exit_or_terminate_process@@YAXI@Z 000000018001a444 f   libucrt:exit.obj
 0001:00019490       ?try_cor_exit_process@@YAXI@Z 000000018001a490 f   libucrt:exit.obj
 0001:00019528       ??$parse_command_line@D@@YAXPEADPEAPEAD0PEA_K2@Z 000000018001a528 f   libucrt:argv_parsing.obj
 0001:000198c0       ??$common_initialize_environment_nolock@D@@YAHXZ 000000018001a8c0 f   libucrt:environment_initialization.obj
 0001:0001992c       ??$create_environment@D@@YAQEAPEADQEAD@Z 000000018001a92c f   libucrt:environment_initialization.obj
 0001:00019a28       ??$free_environment@D@@YAXQEAPEAD@Z 000000018001aa28 f   libucrt:environment_initialization.obj
 0001:00019a28       ??$free_environment@_W@@YAXQEAPEA_W@Z 000000018001aa28 f   libucrt:environment_initialization.obj
 0001:00019a6c       ??$uninitialize_environment_internal@D@@YAXAEAPEAPEAD@Z 000000018001aa6c f   libucrt:environment_initialization.obj
 0001:00019a88       ??$uninitialize_environment_internal@_W@@YAXAEAPEAPEA_W@Z 000000018001aa88 f   libucrt:environment_initialization.obj
 0001:00019cc0       ??R<lambda_4e60a939b0d047cfe11ddc22648dfba9>@@QEBAHXZ 000000018001acc0 f   libucrt:onexit.obj
 0001:00019f70       initialize_global_variables 000000018001af70 f   libucrt:initialization.obj
 0001:00019f84       initialize_c               000000018001af84 f   libucrt:initialization.obj
 0001:00019fa8       uninitialize_environment   000000018001afa8 f   libucrt:initialization.obj
 0001:00019fb8       initialize_pointers        000000018001afb8 f   libucrt:initialization.obj
 0001:0001a00c       uninitialize_vcruntime     000000018001b00c f   libucrt:initialization.obj
 0001:0001a014       uninitialize_allocated_memory 000000018001b014 f   libucrt:initialization.obj
 0001:0001a0a4       initialize_global_state_isolation 000000018001b0a4 f   libucrt:initialization.obj
 0001:0001a0a4       report_memory_leaks        000000018001b0a4 f   libucrt:initialization.obj
 0001:0001a0a4       uninitialize_c             000000018001b0a4 f   libucrt:initialization.obj
 0001:0001a0a4       uninitialize_global_state_isolation 000000018001b0a4 f   libucrt:initialization.obj
 0001:0001a0a4       initialize_environment     000000018001b0a4 f   libucrt:initialization.obj
 0001:0001a704       ?construct_ptd_array@@YAXQEAU__acrt_ptd@@@Z 000000018001b704 f   libucrt:per_thread_data.obj
 0001:0001a7d4       ?destroy_fls@@YAXPEAX@Z    000000018001b7d4 f   libucrt:per_thread_data.obj
 0001:0001a7f4       ?destroy_ptd_array@@YAXQEAU__acrt_ptd@@@Z 000000018001b7f4 f   libucrt:per_thread_data.obj
 0001:0001a8ec       ?replace_current_thread_locale_nolock@@YAXQEAU__acrt_ptd@@QEAU__crt_locale_data@@@Z 000000018001b8ec f   libucrt:per_thread_data.obj
 0001:0001ad98       common_flush_all           000000018001bd98 f   libucrt:fflush.obj
 0001:0001b1b0       ?internal_isupper_l@@YA_NHQEAU__crt_locale_pointers@@@Z 000000018001c1b0 f   libucrt:tolower_toupper.obj
 0001:0001b4b4       ?try_get_function@@YAPEAXW4function_id@?A0x63058377@@QEBDQEBW4module_id@2@2@Z 000000018001c4b4 f   libucrt:winapi_thunks.obj
 0001:0001ba98       ?<helper_func_cdecl>@<lambda_2feae5270eb4d0d5532525f423405775>@@CAHPEBX0@Z 000000018001ca98 f   libucrt:argv_wildcards.obj
 0001:0001baac       ??$common_expand_argv_wildcards@D@@YAHQEAPEADQEAPEAPEAD@Z 000000018001caac f   libucrt:argv_wildcards.obj
 0001:0001bcb8       ??$copy_and_add_argument_to_buffer@D@@YAHQEBD0_KAEAV?$argument_list@D@?A0xca0879c4@@@Z 000000018001ccb8 f   libucrt:argv_wildcards.obj
 0001:0001bdc8       ??$expand_argument_wildcards@D@@YAHQEAD0AEAV?$argument_list@D@?A0xca0879c4@@@Z 000000018001cdc8 f   libucrt:argv_wildcards.obj
 0001:0001c07c       ??R<lambda_ad1ced32f4ac17aa236e5ef05d6b3b7c>@@QEBAXXZ 000000018001d07c f   libucrt:mbctype.obj
 0001:0001c294       ?getSystemCP@@YAHH@Z       000000018001d294 f   libucrt:mbctype.obj
 0001:0001c314       ?setSBCS@@YAXPEAU__crt_multibyte_data@@@Z 000000018001d314 f   libucrt:mbctype.obj
 0001:0001c3a4       ?setSBUpLow@@YAXPEAU__crt_multibyte_data@@@Z 000000018001d3a4 f   libucrt:mbctype.obj
 0001:0001c588       ?setmbcp_internal@@YAHH_N@Z 000000018001d588 f   libucrt:mbctype.obj
 0001:0001cad0       ?x_ismbbtype_l@@YAHPEAU__crt_locale_pointers@@IHH@Z 000000018001dad0 f   libucrt:ismbbyte.obj
 0001:0001cd50       ?initialize_inherited_file_handles_nolock@@YAXXZ 000000018001dd50 f   libucrt:ioinit.obj
 0001:0001ce3c       ?initialize_stdio_handles_nolock@@YAXXZ 000000018001de3c f   libucrt:ioinit.obj
 0001:0001d9e8       ?write_double_translated_ansi_nolock@@YA?AUwrite_result@?A0x9c548279@@HQEBDI@Z 000000018001e9e8 f   libucrt:write.obj
 0001:0001dbf0       ?write_text_ansi_nolock@@YA?AUwrite_result@?A0x9c548279@@HQEBDI@Z 000000018001ebf0 f   libucrt:write.obj
 0001:0001dcf8       ?write_text_utf16le_nolock@@YA?AUwrite_result@?A0x9c548279@@HQEBDI@Z 000000018001ecf8 f   libucrt:write.obj
 0001:0001de14       ?write_text_utf8_nolock@@YA?AUwrite_result@?A0x9c548279@@HQEBDI@Z 000000018001ee14 f   libucrt:write.obj
 0001:0001e398       ?__acrt_LCMapStringA_stat@@YAHPEAU__crt_locale_pointers@@PEB_WKPEBDHPEADHHH@Z 000000018001f398 f   libucrt:lcmapstringa.obj
 0001:0001e904       ?free_crt_array_internal@@YAXQEAPEBX_K@Z 000000018001f904 f   libucrt:inittime.obj
 0001:0001ec18       ?GetTableIndexFromLocaleName@@YAHPEB_W@Z 000000018001fc18 f   libucrt:lcidtoname_downlevel.obj
 0001:0001ef28       ?initialize_multibyte@@YAHXZ 000000018001ff28 f   libucrt:multibyte_initializer.obj
 0001:0001f46c       ??$common_lseek_nolock@_J@@YA_JH_JH@Z 000000018002046c f   libucrt:lseek.obj
 0001:0001f590       $$000000                   0000000180020590     libucrt:log10.obj
 0001:0001fdb0       _call_matherr              0000000180020db0 f   libucrt:libm_error.obj
 0001:0001fe18       _exception_enabled         0000000180020e18 f   libucrt:libm_error.obj
 0001:00020090       _log_special_common        0000000180021090 f   libucrt:log_special.obj
 0001:00020130       $$000000                   0000000180021130     libucrt:fpsr.obj
 0001:00020de0       $$000000                   0000000180021de0     LIBCMT:_chkstk_.obj
 0001:00020e50       $$000000                   0000000180021e50     libvcruntime:memcpy.obj
 0001:00020ef7       MoveSmall                  0000000180021ef7     libvcruntime:memcpy.obj
 0001:000212a0       $$000000                   00000001800222a0     libvcruntime:memcmp.obj
 0001:00021380       $$000000                   0000000180022380     LIBCMT:_guard_dispatch_.obj
 0001:000213a0       __scrt_is_nonwritable_in_current_image$filt$0 00000001800223a0 f   LIBCMT:utility.obj
 0001:000213b8       ?fin$0@?0??dllmain_crt_process_attach@@YAHQEAUHINSTANCE__@@QEAX@Z@4HA 00000001800223b8 f   LIBCMT:dll_dllmain.obj
 0001:000213cf       ?fin$0@?0??dllmain_crt_process_detach@@YAH_N@Z@4HA 00000001800223cf f   LIBCMT:dll_dllmain.obj
 0001:000213eb       ?filt$0@?0??dllmain_dispatch@@YAHQEAUHINSTANCE__@@KQEAX@Z@4HA 00000001800223eb f   LIBCMT:dll_dllmain.obj
 0001:00021421       _query_new_handler$fin$0   0000000180022421 f   libucrt:new_handler.obj
 0001:00021437       ?filt$0@?0??common_exit@@YAXHW4_crt_exit_cleanup_mode@@W4_crt_exit_return_mode@@@Z@4HA 0000000180022437 f   libucrt:exit.obj
 0001:00021452       ?fin$1@?0??common_exit@@YAXHW4_crt_exit_cleanup_mode@@W4_crt_exit_return_mode@@@Z@4HA 0000000180022452 f   libucrt:exit.obj
 0001:0002146b       ?fin$0@?0???$?RV<lambda_e24bbb7b643b32fcea6fa61b31d4c984>@@AEAV<lambda_275893d493268fdec8709772e3fcec0e>@@V<lambda_9d71df4d7cf3f480f8d633942495c3b0>@@@?$__crt_seh_guarded_call@H@@QEAAH$$QEAV<lambda_e24bbb7b643b32fcea6fa61b31d4c984>@@AEAV<lambda_275893d493268fdec8709772e3fcec0e>@@$$QEAV<lambda_9d71df4d7cf3f480f8d633942495c3b0>@@@Z@4HA 000000018002246b f   libucrt:onexit.obj
 0001:00021488       ?fin$0@?0???$?RV<lambda_99476a1ad63dd22509b5d3e65b0ffc95>@@AEAV<lambda_ad1ced32f4ac17aa236e5ef05d6b3b7c>@@V<lambda_f7424dd8d45958661754dc4f2697e9c3>@@@?$__crt_seh_guarded_call@X@@QEAAX$$QEAV<lambda_99476a1ad63dd22509b5d3e65b0ffc95>@@AEAV<lambda_ad1ced32f4ac17aa236e5ef05d6b3b7c>@@$$QEAV<lambda_f7424dd8d45958661754dc4f2697e9c3>@@@Z@4HA 0000000180022488 f   libucrt:mbctype.obj
 0001:00021488       ?fin$0@?0???$?RV<lambda_fb3a7dec4e47f37f22dae91bb15c9095>@@AEAV<lambda_698284760c8add0bfb0756c19673e34b>@@V<lambda_dfb8eca1e75fef3034a8fb18dd509707>@@@?$__crt_seh_guarded_call@X@@QEAAX$$QEAV<lambda_fb3a7dec4e47f37f22dae91bb15c9095>@@AEAV<lambda_698284760c8add0bfb0756c19673e34b>@@$$QEAV<lambda_dfb8eca1e75fef3034a8fb18dd509707>@@@Z@4HA 0000000180022488 f   libucrt:per_thread_data.obj
 0001:00021488       ?fin$0@?0???$?RV<lambda_b8c45f8f788dd370798f47cfe8ac3a86>@@AEAV<lambda_4e60a939b0d047cfe11ddc22648dfba9>@@V<lambda_332c3edc96d0294ec56c57d38c1cdfd5>@@@?$__crt_seh_guarded_call@H@@QEAAH$$QEAV<lambda_b8c45f8f788dd370798f47cfe8ac3a86>@@AEAV<lambda_4e60a939b0d047cfe11ddc22648dfba9>@@$$QEAV<lambda_332c3edc96d0294ec56c57d38c1cdfd5>@@@Z@4HA 0000000180022488 f   libucrt:onexit.obj
 0001:00021488       ?fin$0@?0???$?RV<lambda_5e887d1dcbef67a5eb4283622ba103bf>@@AEAV<lambda_4466841279450cc726390878d4a41900>@@V<lambda_341c25c0346d94847f1f3c463c57e077>@@@?$__crt_seh_guarded_call@X@@QEAAX$$QEAV<lambda_5e887d1dcbef67a5eb4283622ba103bf>@@AEAV<lambda_4466841279450cc726390878d4a41900>@@$$QEAV<lambda_341c25c0346d94847f1f3c463c57e077>@@@Z@4HA 0000000180022488 f   libucrt:per_thread_data.obj
 0001:00021488       ?fin$0@?0???$?RV<lambda_46352004c1216016012b18bd6f87e700>@@AEAV<lambda_3bd07e1a1191394380780325891bf33f>@@V<lambda_334532d3f185bcaa59b5be82d7d22bff>@@@?$__crt_seh_guarded_call@X@@QEAAX$$QEAV<lambda_46352004c1216016012b18bd6f87e700>@@AEAV<lambda_3bd07e1a1191394380780325891bf33f>@@$$QEAV<lambda_334532d3f185bcaa59b5be82d7d22bff>@@@Z@4HA 0000000180022488 f   libucrt:per_thread_data.obj
 0001:00021488       ?fin$0@?0???$?RV<lambda_72d1df2b273a38828b1ce30cbf4cdab5>@@AEAV<lambda_876a65b173b8412d3a47c70a915b0cf4>@@V<lambda_41932305e351933ebe8f8be3ed8bb5dc>@@@?$__crt_seh_guarded_call@X@@QEAAX$$QEAV<lambda_72d1df2b273a38828b1ce30cbf4cdab5>@@AEAV<lambda_876a65b173b8412d3a47c70a915b0cf4>@@$$QEAV<lambda_41932305e351933ebe8f8be3ed8bb5dc>@@@Z@4HA 0000000180022488 f   libucrt:per_thread_data.obj
 0001:00021488       ?fin$0@?0???$?RV<lambda_c36588078e9f5dfd39652860aa6b3aaf>@@AEAV<lambda_ec61778202f4f5fc7e7711acc23c3bca>@@V<lambda_dc9d2797ccde5d239b4a0efae8ebd7db>@@@?$__crt_seh_guarded_call@P6AXH@Z@@QEAAP6AXH@Z$$QEAV<lambda_c36588078e9f5dfd39652860aa6b3aaf>@@AEAV<lambda_ec61778202f4f5fc7e7711acc23c3bca>@@$$QEAV<lambda_dc9d2797ccde5d239b4a0efae8ebd7db>@@@Z@4HA 0000000180022488 f   libucrt:signal.obj
 0001:000214a2       common_flush_all$fin$0     00000001800224a2 f   libucrt:fflush.obj
 0001:000214bc       common_flush_all$fin$1     00000001800224bc f   libucrt:fflush.obj
 0001:000214d5       raise$fin$0                00000001800224d5 f   libucrt:signal.obj
 0001:000214f9       __acrt_update_thread_locale_data$fin$0 00000001800224f9 f   libucrt:locale_refcounting.obj
 0001:000214f9       __acrt_uninitialize_locale$fin$0 00000001800224f9 f   libucrt:wsetlocale.obj
 0001:00021512       __acrt_update_thread_multibyte_data$fin$0 0000000180022512 f   libucrt:mbctype.obj
 0001:0002152b       _fcloseall$fin$0           000000018002252b f   libucrt:closeall.obj
 0001:00021544       ?fin$0@?0???$?RV<lambda_b521505b218e5242e90febf6bfebc422>@@AEAV<lambda_6978c1fb23f02e42e1d9e99668cc68aa>@@V<lambda_314360699dd331753a4119843814e9a7>@@@?$__crt_seh_guarded_call@H@@QEAAH$$QEAV<lambda_b521505b218e5242e90febf6bfebc422>@@AEAV<lambda_6978c1fb23f02e42e1d9e99668cc68aa>@@$$QEAV<lambda_314360699dd331753a4119843814e9a7>@@@Z@4HA 0000000180022544 f   libucrt:commit.obj
 0001:00021544       ?fin$0@?0???$?RV<lambda_bfedae4ebbf01fab1bb6dcc6a9e276e0>@@AEAV<lambda_2fe9b910cf3cbf4a0ab98a02ba45b3ec>@@V<lambda_237c231691f317818eb88cc1d5d642d6>@@@?$__crt_seh_guarded_call@H@@QEAAH$$QEAV<lambda_bfedae4ebbf01fab1bb6dcc6a9e276e0>@@AEAV<lambda_2fe9b910cf3cbf4a0ab98a02ba45b3ec>@@$$QEAV<lambda_237c231691f317818eb88cc1d5d642d6>@@@Z@4HA 0000000180022544 f   libucrt:close.obj
 0001:0002155e       _write$fin$0               000000018002255e f   libucrt:write.obj
 0001:00021575       __acrt_lowio_ensure_fh_exists$fin$0 0000000180022575 f   libucrt:osfinfo.obj
 0001:00021575       __acrt_initialize_lowio$fin$0 0000000180022575 f   libucrt:ioinit.obj
 0001:0002158e       fclose$fin$0               000000018002258e f   libucrt:fclose.obj
 0001:000215a6       _ctrlfp$filt$0             00000001800225a6 f   libucrt:fpctrl.obj
 0001:000215e0       _IsNonwritableInCurrentImage$filt$0 00000001800225e0 f   LIBCMT:pesect.obj
 0001:00021600       ??__F?object_template@Iconv@?A0x9d7288fc@@2V?$Persistent@VObjectTemplate@v8@@V?$NonCopyablePersistentTraits@VObjectTemplate@v8@@@2@@Nan@@A@@YAXXZ 0000000180022600 f   binding.obj
 0002:00000260       ??object_template$initializer$@Iconv@?A0x9d7288fc@@2P6AXXZEA@@3P6AXXZEA 0000000180023260     binding.obj
 0002:000002f8       GS_ExceptionPointers       00000001800232f8     LIBCMT:gs_report.obj
 0002:000003a0       ?ExceptionTemplate@?1??_CxxThrowException@@9@4UEHExceptionRecord@@B 00000001800233a0     libvcruntime:throw.obj
 0002:000003e0       ?module_names@?A0x679b24ab@@3QBQEB_WB 00000001800233e0     libvcruntime:winapi_downlevel.obj
 0002:000004b0       ?candidate_modules@?1??try_get_FlsAlloc@@YAP6AKP6AXPEAX@Z@ZXZ@4QBW4module_id@?A0x679b24ab@@B 00000001800234b0     libvcruntime:winapi_downlevel.obj
 0002:000004c8       ?candidate_modules@?1??try_get_FlsFree@@YAP6AHK@ZXZ@4QBW4module_id@?A0x679b24ab@@B 00000001800234c8     libvcruntime:winapi_downlevel.obj
 0002:000004d8       ?candidate_modules@?1??try_get_FlsGetValue@@YAP6APEAXK@ZXZ@4QBW4module_id@?A0x679b24ab@@B 00000001800234d8     libvcruntime:winapi_downlevel.obj
 0002:000004f0       ?candidate_modules@?1??try_get_FlsSetValue@@YAP6AHKPEAX@ZXZ@4QBW4module_id@?A0x679b24ab@@B 00000001800234f0     libvcruntime:winapi_downlevel.obj
 0002:00000508       ?candidate_modules@?1??try_get_InitializeCriticalSectionEx@@YAP6AHPEAU_RTL_CRITICAL_SECTION@@KK@ZXZ@4QBW4module_id@?A0x679b24ab@@B 0000000180023508     libvcruntime:winapi_downlevel.obj
 0002:00000530       ?tokenTable@@3QBQEBDB      0000000180023530     libvcruntime:undname.obj
 0002:000005a0       ?nameTable@@3QBQEBDB       00000001800235a0     libvcruntime:undname.obj
 0002:00000828       ?rttiTable@@3QBQEBDB       0000000180023828     libvcruntime:undname.obj
 0002:00000eb0       errtable                   0000000180023eb0     libucrt:errno.obj
 0002:00001120       __acrt_initializers        0000000180024120     libucrt:initialization.obj
 0002:00001890       module_names               0000000180024890     libucrt:winapi_thunks.obj
 0002:00001dc0       ?candidate_modules@?1??try_get_FlsAlloc@@YAP6AKP6AXPEAX@Z@ZXZ@4QBW4module_id@?A0x63058377@@B 0000000180024dc0     libucrt:winapi_thunks.obj
 0002:00001dc8       ?candidate_modules@?1??try_get_FlsFree@@YAP6AHK@ZXZ@4QBW4module_id@?A0x63058377@@B 0000000180024dc8     libucrt:winapi_thunks.obj
 0002:00001dd0       ?candidate_modules@?1??try_get_FlsGetValue@@YAP6APEAXK@ZXZ@4QBW4module_id@?A0x63058377@@B 0000000180024dd0     libucrt:winapi_thunks.obj
 0002:00001dd8       ?candidate_modules@?1??try_get_FlsSetValue@@YAP6AHKPEAX@ZXZ@4QBW4module_id@?A0x63058377@@B 0000000180024dd8     libucrt:winapi_thunks.obj
 0002:00001de0       ?candidate_modules@?1??try_get_GetCurrentPackageId@@YAP6AJPEAIPEAE@ZXZ@4QBW4module_id@?A0x63058377@@B 0000000180024de0     libucrt:winapi_thunks.obj
 0002:00001e00       ?candidate_modules@?1??try_get_InitializeCriticalSectionEx@@YAP6AHPEAU_RTL_CRITICAL_SECTION@@KK@ZXZ@4QBW4module_id@?A0x63058377@@B 0000000180024e00     libucrt:winapi_thunks.obj
 0002:00001e08       ?candidate_modules@?1??try_get_LCMapStringEx@@YAP6AHPEB_WK0HPEA_WHPEAU_nlsversioninfo@@PEAX_J@ZXZ@4QBW4module_id@?A0x63058377@@B 0000000180024e08     libucrt:winapi_thunks.obj
 0002:00001e20       ?candidate_modules@?1??try_get_LocaleNameToLCID@@YAP6AKPEB_WK@ZXZ@4QBW4module_id@?A0x63058377@@B 0000000180024e20     libucrt:winapi_thunks.obj
 0002:00001e40       _mb_locale_names           0000000180024e40     libucrt:mbctype.obj
 0002:000024b0       LcidToLocaleNameTable      00000001800254b0     libucrt:lcidtoname_downlevel.obj
 0002:00003f10       LocaleNameToIndexTable     0000000180026f10     libucrt:lcidtoname_downlevel.obj
 0002:000057b0       __real_ninf                00000001800287b0     libucrt:log10.obj
 0002:000057c0       __real_inf                 00000001800287c0     libucrt:log10.obj
 0002:000057d0       __real_neg_qnan            00000001800287d0     libucrt:log10.obj
 0002:000057e0       __real_qnanbit             00000001800287e0     libucrt:log10.obj
 0002:000057f0       __int_1023                 00000001800287f0     libucrt:log10.obj
 0002:00005800       __mask_001                 0000000180028800     libucrt:log10.obj
 0002:00005810       __mask_mant                0000000180028810     libucrt:log10.obj
 0002:00005820       __mask_mant_top8           0000000180028820     libucrt:log10.obj
 0002:00005830       __mask_mant9               0000000180028830     libucrt:log10.obj
 0002:00005840       __real_log10_e             0000000180028840     libucrt:log10.obj
 0002:00005850       __real_log10_e_lead        0000000180028850     libucrt:log10.obj
 0002:00005860       __real_log10_e_tail        0000000180028860     libucrt:log10.obj
 0002:00005870       __real_log10_2_lead        0000000180028870     libucrt:log10.obj
 0002:00005880       __real_log10_2_tail        0000000180028880     libucrt:log10.obj
 0002:00005890       __real_two                 0000000180028890     libucrt:log10.obj
 0002:000058a0       __real_one                 00000001800288a0     libucrt:log10.obj
 0002:000058b0       __real_half                00000001800288b0     libucrt:log10.obj
 0002:000058c0       __mask_100                 00000001800288c0     libucrt:log10.obj
 0002:000058d0       __real_1_over_512          00000001800288d0     libucrt:log10.obj
 0002:000058e0       __real_1_over_2            00000001800288e0     libucrt:log10.obj
 0002:000058f0       __real_1_over_3            00000001800288f0     libucrt:log10.obj
 0002:00005900       __real_1_over_4            0000000180028900     libucrt:log10.obj
 0002:00005910       __real_1_over_5            0000000180028910     libucrt:log10.obj
 0002:00005920       __real_1_over_6            0000000180028920     libucrt:log10.obj
 0002:00005930       __real_neg_1023            0000000180028930     libucrt:log10.obj
 0002:00005940       __mask_2045                0000000180028940     libucrt:log10.obj
 0002:00005950       __real_threshold           0000000180028950     libucrt:log10.obj
 0002:00005960       __real_near_one_lt         0000000180028960     libucrt:log10.obj
 0002:00005970       __real_near_one_gt         0000000180028970     libucrt:log10.obj
 0002:00005980       __real_min_norm            0000000180028980     libucrt:log10.obj
 0002:00005990       __real_notsign             0000000180028990     libucrt:log10.obj
 0002:000059a0       __real_ca1                 00000001800289a0     libucrt:log10.obj
 0002:000059b0       __real_ca2                 00000001800289b0     libucrt:log10.obj
 0002:000059c0       __real_ca3                 00000001800289c0     libucrt:log10.obj
 0002:000059d0       __real_ca4                 00000001800289d0     libucrt:log10.obj
 0002:000059e0       __mask_lower               00000001800289e0     libucrt:log10.obj
 0002:000059f0       __flag_x_zero              00000001800289f0     libucrt:log10.obj
 0002:000059f4       __flag_x_neg               00000001800289f4     libucrt:log10.obj
 0002:000059f8       __flag_x_nan               00000001800289f8     libucrt:log10.obj
 0002:00007250       __real@433fffffffffffff    000000018002a250     libucrt:fpsr.obj
 0002:00007258       __real@c33fffffffffffff    000000018002a258     libucrt:fpsr.obj
 0002:000073d0       hkscs2001_uni2indx_page289 000000018002a3d0     iconv.obj
 0002:0000744c       hkscs2008_uni2indx_page289 000000018002a44c     iconv.obj
 0002:00007450       nextstep_2uni              000000018002a450     iconv.obj
 0002:00007550       mac_romania_page00         000000018002a550     iconv.obj
 0002:00007648       isoir165ext_uni2indx_pageff 000000018002a648     iconv.obj
 0002:0000765c       hkscs1999_uni2indx_pagef9  000000018002a65c     iconv.obj
 0002:00007660       cp1133_page0e              000000018002a660     iconv.obj
 0002:000076c0       iso8859_14_2uni            000000018002a6c0     iconv.obj
 0002:00007780       mac_iceland_page20         000000018002a780     iconv.obj
 0002:000077b8       cp864_page00               000000018002a7b8     iconv.obj
 0002:000077c0       jisx0208_2charset          000000018002a7c0     iconv.obj
 0002:0000ad80       jisx0213_to_ucs_main       000000018002dd80     iconv.obj
 0002:000105a0       cns11643_15_2uni_page21    00000001800335a0     iconv.obj
 0002:00013da8       atarist_page03             0000000180036da8     iconv.obj
 0002:00013de0       hkscs2001_uni2indx_page70  0000000180036de0     iconv.obj
 0002:00013f10       tcvn_page00                0000000180036f10     iconv.obj
 0002:00014028       iso8859_7_page00           0000000180037028     iconv.obj
 0002:00014048       mac_hebrew_pagefb          0000000180037048     iconv.obj
 0002:00014080       ?asso_values@?1??aliases_hash@@9@9 0000000180037080     iconv.obj
 0002:00014180       uhc_1_2charset_main        0000000180037180     iconv.obj
 0002:000141e0       cp850_2uni                 00000001800371e0     iconv.obj
 0002:000142e0       hkscs2004_uni2indx_page290 00000001800372e0     iconv.obj
 0002:00014300       isoir165ext_uni2indx_page9e 0000000180037300     iconv.obj
 0002:00014364       tcvn_comb_table            0000000180037364     iconv.obj
 0002:00014370       uhc_2_2uni_pagea1          0000000180037370     iconv.obj
 0002:00014fa8       mac_iceland_page21         0000000180037fa8     iconv.obj
 0002:00014fb0       isoir165ext_uni2indx_page00 0000000180037fb0     iconv.obj
 0002:00015030       georgian_ps_page01         0000000180038030     iconv.obj
 0002:00015078       cp950ext_uni2indx_page60   0000000180038078     iconv.obj
 0002:00015090       mac_thai_page0e            0000000180038090     iconv.obj
 0002:000150f0       koi8_r_page22              00000001800380f0     iconv.obj
 0002:00015140       mulelao_2uni               0000000180038140     iconv.obj
 0002:00015200       cp775_page25               0000000180038200     iconv.obj
 0002:000152a8       cp775_page20               00000001800382a8     iconv.obj
 0002:000152b0       cp855_page25               00000001800382b0     iconv.obj
 0002:00015358       jamo_initial               0000000180038358     iconv.obj
 0002:00015378       cp866_page22               0000000180038378     iconv.obj
 0002:00015380       mac_iceland_2uni           0000000180038380     iconv.obj
 0002:00015480       cp856_page25               0000000180038480     iconv.obj
 0002:00015528       hkscs2004_uni2indx_page270 0000000180038528     iconv.obj
 0002:00015560       cp862_page22               0000000180038560     iconv.obj
 0002:000155b0       hkscs2008_uni2indx_page25d 00000001800385b0     iconv.obj
 0002:000155e0       big5_2uni_pagea1           00000001800385e0     iconv.obj
 0002:000185b8       hkscs2004_uni2indx_page28b 000000018003b5b8     iconv.obj
 0002:000185e8       hkscs2008_uni2indx_page90  000000018003b5e8     iconv.obj
 0002:00018600       big5_uni2indx_page24       000000018003b600     iconv.obj
 0002:00018694       hkscs2004_uni2indx_page24b 000000018003b694     iconv.obj
 0002:00018698       mac_turkish_page21         000000018003b698     iconv.obj
 0002:000186a0       viscii_page1e              000000018003b6a0     iconv.obj
 0002:00018700       cns11643_inv_uni2indx_page24 000000018003b700     iconv.obj
 0002:00018794       hkscs2001_uni2indx_page287 000000018003b794     iconv.obj
 0002:00018798       gb2312_uni2indx_pageff     000000018003b798     iconv.obj
 0002:000187d4       hkscs2001_uni2indx_page271 000000018003b7d4     iconv.obj
 0002:000187d8       hkscs2004_uni2indx_page85  000000018003b7d8     iconv.obj
 0002:00018800       isoir165ext_uni2indx_page7e 000000018003b800     iconv.obj
 0002:00018d34       hkscs2001_uni2indx_page245 000000018003bd34     iconv.obj
 0002:00018d38       mac_ukraine_page21         000000018003bd38     iconv.obj
 0002:00018d50       hkscs2001_uni2indx_page85  000000018003bd50     iconv.obj
 0002:00018d94       cp1258_comb_table          000000018003bd94     iconv.obj
 0002:00018da0       mac_cyrillic_2uni          000000018003bda0     iconv.obj
 0002:00018ea0       cp922_page01               000000018003bea0     iconv.obj
 0002:00018ec0       ksc5601_uni2indx_pageac    000000018003bec0     iconv.obj
 0002:000199a8       pt154_page20               000000018003c9a8     iconv.obj
 0002:000199c0       cp1131_2uni                000000018003c9c0     iconv.obj
 0002:00019ac0       atarist_2uni               000000018003cac0     iconv.obj
 0002:00019bc0       koi8_ru_page00             000000018003cbc0     iconv.obj
 0002:00019c18       mac_croatian_page02        000000018003cc18     iconv.obj
 0002:00019c38       hkscs2008_uni2indx_page258 000000018003cc38     iconv.obj
 0002:00019c70       hkscs1999_2charset         000000018003cc70     iconv.obj
 0002:0001c124       big5_uni2indx_pagefa       000000018003f124     iconv.obj
 0002:0001c128       cp1257_page02              000000018003f128     iconv.obj
 0002:0001c148       hkscs2004_uni2indx_page25a 000000018003f148     iconv.obj
 0002:0001c160       hkscs1999_2uni_pagef9      000000018003f160     iconv.obj
 0002:0001c8c0       uhc_1_2charset             000000018003f8c0     iconv.obj
 0002:0001df00       cns11643_6_2uni_page21     0000000180040f00     iconv.obj
 0002:000210e8       cp1253_page20              00000001800440e8     iconv.obj
 0002:00021118       hkscs2008_uni2indx_page260 0000000180044118     iconv.obj
 0002:00021130       cns11643_15_2uni_upages    0000000180044130     iconv.obj
 0002:00021528       georgian_academy_page20    0000000180044528     iconv.obj
 0002:00021558       cp1129_page03              0000000180044558     iconv.obj
 0002:00021580       gbkext2_2uni_pagea8        0000000180044580     iconv.obj
 0002:00025620       cp1256_2uni                0000000180048620     iconv.obj
 0002:00025720       cp1252_page01              0000000180048720     iconv.obj
 0002:00025768       hkscs2008_uni2indx_page34  0000000180048768     iconv.obj
 0002:000257a8       cp936ext_pagefe            00000001800487a8     iconv.obj
 0002:000257d8       hkscs1999_uni2indx_page04  00000001800487d8     iconv.obj
 0002:000257f0       cns11643_2_2uni_page21     00000001800487f0     iconv.obj
 0002:000293b8       georgian_academy_page02    000000018004c3b8     iconv.obj
 0002:000293d8       mac_cyrillic_page21        000000018004c3d8     iconv.obj
 0002:000293f0       cns11643_4b_2uni_page40    000000018004c3f0     iconv.obj
 0002:0002b630       cjk_variants_indx          000000018004e630     iconv.obj
 0002:00035a30       hkscs2004_uni2indx_page9f  0000000180058a30     iconv.obj
 0002:00035a60       cp857_page25               0000000180058a60     iconv.obj
 0002:00035b08       iso8859_14_page01_0        0000000180058b08     iconv.obj
 0002:00035b28       hkscs2008_uni2indx_page21d 0000000180058b28     iconv.obj
 0002:00035b40       uhc_2_uni2indx_pagec8      0000000180058b40     iconv.obj
 0002:00035f30       hkscs1999_uni2indx_page21  0000000180058f30     iconv.obj
 0002:00035f70       hkscs1999_2uni_upages      0000000180058f70     iconv.obj
 0002:00036ea8       cp1161_page00              0000000180059ea8     iconv.obj
 0002:00036eb8       cp1125_page00              0000000180059eb8     iconv.obj
 0002:00036ed0       cp775_2uni                 0000000180059ed0     iconv.obj
 0002:00036fd0       hkscs1999_uni2indx_page34  0000000180059fd0     iconv.obj
 0002:00038ac0       jisx0212_2uni_page30       000000018005bac0     iconv.obj
 0002:0003b818       mac_iceland_page02         000000018005e818     iconv.obj
 0002:0003b838       mac_greek_page20           000000018005e838     iconv.obj
 0002:0003b860       hkscs2008_uni2indx_page73  000000018005e860     iconv.obj
 0002:0003b8d8       riscos1_page20             000000018005e8d8     iconv.obj
 0002:0003b908       cp853_page02               000000018005e908     iconv.obj
 0002:0003b910       cp864_2uni_2               000000018005e910     iconv.obj
 0002:0003ba10       iso8859_4_page00           000000018005ea10     iconv.obj
 0002:0003baf0       cp922_2uni_3               000000018005eaf0     iconv.obj
 0002:0003bb10       gb2312_uni2indx_page9e     000000018005eb10     iconv.obj
 0002:0003bb80       cp1251_page04              000000018005eb80     iconv.obj
 0002:0003bc18       gb18030ext_page2f          000000018005ec18     iconv.obj
 0002:0003bc38       cp866_page00               000000018005ec38     iconv.obj
 0002:0003bc50       cp866_page25               000000018005ec50     iconv.obj
 0002:0003bcf8       cp1258_page03              000000018005ecf8     iconv.obj
 0002:0003bd20       mac_romania_page22         000000018005ed20     iconv.obj
 0002:0003bd88       hkscs2008_uni2indx_page9f  000000018005ed88     iconv.obj
 0002:0003bdc0       cp1131_page04              000000018005edc0     iconv.obj
 0002:0003be58       hkscs2008_uni2indx_page62  000000018005ee58     iconv.obj
 0002:0003be90       gb18030ext_page43          000000018005ee90     iconv.obj
 0002:0003bf00       cp922_2uni_2               000000018005ef00     iconv.obj
 0002:0003bf20       cp932ext_uni2indx_page7d   000000018005ef20     iconv.obj
 0002:0003bfd0       hkscs2001_uni2indx_page5a  000000018005efd0     iconv.obj
 0002:0003c148       cp852_page02               000000018005f148     iconv.obj
 0002:0003c168       hkscs2004_uni2indx_page7d  000000018005f168     iconv.obj
 0002:0003c190       mac_arabic_page06          000000018005f190     iconv.obj
 0002:0003c260       cp737_page03               000000018005f260     iconv.obj
 0002:0003c2b0       cp860_page00               000000018005f2b0     iconv.obj
 0002:0003c310       armscii_8_2uni             000000018005f310     iconv.obj
 0002:0003c3d0       cp437_2uni                 000000018005f3d0     iconv.obj
 0002:0003c4d0       gbkext_inv_uni2indx_pagef9 000000018005f4d0     iconv.obj
 0002:0003c520       translit_page31_5          000000018005f520     iconv.obj
 0002:0003c940       translit_pagefe            000000018005f940     iconv.obj
 0002:0003c990       mac_roman_page02           000000018005f990     iconv.obj
 0002:0003c9b0       uhc_2_2charset_main        000000018005f9b0     iconv.obj
 0002:0003ca18       hkscs2004_uni2indx_page29e 000000018005fa18     iconv.obj
 0002:0003ca48       hkscs2001_uni2indx_page299 000000018005fa48     iconv.obj
 0002:0003ca60       cp862_page25               000000018005fa60     iconv.obj
 0002:0003cb08       hkscs2004_uni2indx_page232 000000018005fb08     iconv.obj
 0002:0003cb20       hkscs2008_uni2indx_page235 000000018005fb20     iconv.obj
 0002:0003cb88       georgian_ps_page10         000000018005fb88     iconv.obj
 0002:0003cbb0       cp864_pagefe               000000018005fbb0     iconv.obj
 0002:0003cc38       cp932ext_uni2indx_page24   000000018005fc38     iconv.obj
 0002:0003cc58       jamo_final_index_inverse   000000018005fc58     iconv.obj
 0002:0003cc78       hkscs2001_uni2indx_page40  000000018005fc78     iconv.obj
 0002:0003cc98       cp437_page23               000000018005fc98     iconv.obj
 0002:0003ccb0       cp1255_page00              000000018005fcb0     iconv.obj
 0002:0003cd08       hkscs2004_uni2indx_page6e  000000018005fd08     iconv.obj
 0002:0003cd20       cp1257_page00              000000018005fd20     iconv.obj
 0002:0003ce00       hkscs2001_2uni_page8c      000000018005fe00     iconv.obj
 0002:0003cef8       georgian_ps_page00         000000018005fef8     iconv.obj
 0002:0003cf18       hkscs2001_uni2indx_page65  000000018005ff18     iconv.obj
 0002:0003cf40       mac_romania_2uni           000000018005ff40     iconv.obj
 0002:0003d040       cp1257_2uni                0000000180060040     iconv.obj
 0002:0003d140       koi8_r_2uni                0000000180060140     iconv.obj
 0002:0003d240       cp874_2uni                 0000000180060240     iconv.obj
 0002:0003d340       cp865_page25               0000000180060340     iconv.obj
 0002:0003d3e8       mac_romania_page21         00000001800603e8     iconv.obj
 0002:0003d3f0       hkscs1999_uni2indx_page200 00000001800603f0     iconv.obj
 0002:0003f870       gb18030ext_page2e          0000000180062870     iconv.obj
 0002:0003f910       hkscs2004_uni2indx_page4a  0000000180062910     iconv.obj
 0002:0003f940       translit_page22            0000000180062940     iconv.obj
 0002:0003fa00       koi8_t_page04              0000000180062a00     iconv.obj
 0002:0003faf0       translit_page21            0000000180062af0     iconv.obj
 0002:0003fca0       ksc5601_uni2indx_page20    0000000180062ca0     iconv.obj
 0002:0003fe40       hkscs2008_uni2indx_page231 0000000180062e40     iconv.obj
 0002:0003fe98       hp_roman8_page01           0000000180062e98     iconv.obj
 0002:0003fed0       cp862_page00               0000000180062ed0     iconv.obj
 0002:0003ff30       isoir165ext_2charset       0000000180062f30     iconv.obj
 0002:00040608       hkscs2004_uni2indx_page26e 0000000180063608     iconv.obj
 0002:00040630       isoir165ext_2uni_page7a    0000000180063630     iconv.obj
 0002:000409e0       big5_uni2indx_pagefe       00000001800639e0     iconv.obj
 0002:00040a40       iso8859_16_2uni            0000000180063a40     iconv.obj
 0002:00040b00       cns11643_7_2uni_page21     0000000180063b00     iconv.obj
 0002:00043e18       armscii_8_page00_1         0000000180066e18     iconv.obj
 0002:00043e38       hkscs2001_uni2indx_page256 0000000180066e38     iconv.obj
 0002:00043e60       iso8859_5_2uni             0000000180066e60     iconv.obj
 0002:00043f20       jisx0213_to_ucs_combining  0000000180066f20     iconv.obj
 0002:00043f88       ?conversion_lists@?1??iso2022_jp2_wctomb@@9@9 0000000180066f88     iconv.obj
 0002:00043f98       hkscs1999_uni2indx_page1e  0000000180066f98     iconv.obj
 0002:00043fd0       cp1161_2uni                0000000180066fd0     iconv.obj
 0002:00044090       cp865_2uni                 0000000180067090     iconv.obj
 0002:00044190       gb2312_uni2indx_page4e     0000000180067190     iconv.obj
 0002:00045550       cp737_2uni                 0000000180068550     iconv.obj
 0002:00045650       jisx0208_uni2indx_page30   0000000180068650     iconv.obj
 0002:00045690       cp874_page0e               0000000180068690     iconv.obj
 0002:000456f0       cp1255_comp_table_data     00000001800686f0     iconv.obj
 0002:00045780       riscos1_2uni               0000000180068780     iconv.obj
 0002:000457c0       cns11643_3_2uni_page64     00000001800687c0     iconv.obj
 0002:00045a08       hkscs2008_uni2indx_page52  0000000180068a08     iconv.obj
 0002:00045a20       cp862_2uni                 0000000180068a20     iconv.obj
 0002:00045b20       direct_tab                 0000000180068b20     iconv.obj
 0002:00045b30       all_encodings              0000000180068b30     iconv.obj
 0002:000471d8       hkscs2004_uni2indx_page5f  000000018006a1d8     iconv.obj
 0002:000471e8       rk1048_page21              000000018006a1e8     iconv.obj
 0002:00047200       cp932ext_2charset          000000018006a200     iconv.obj
 0002:00047598       georgian_ps_page02         000000018006a598     iconv.obj
 0002:000475b8       hkscs2008_uni2indx_page88  000000018006a5b8     iconv.obj
 0002:000475e0       cp1255_decomp_table        000000018006a5e0     iconv.obj
 0002:000476f0       cp1256_page01              000000018006a6f0     iconv.obj
 0002:00047738       hkscs2008_uni2indx_page54  000000018006a738     iconv.obj
 0002:00047750       translit_page31            000000018006a750     iconv.obj
 0002:00047810       koi8_r_page25              000000018006a810     iconv.obj
 0002:000478b8       cp861_page23               000000018006a8b8     iconv.obj
 0002:000478d0       mulelao_page0e             000000018006a8d0     iconv.obj
 0002:00047930       cns11643_4b_2uni_upages    000000018006a930     iconv.obj
 0002:00047d10       cp863_page25               000000018006ad10     iconv.obj
 0002:00047db8       hkscs2008_uni2indx_page8b  000000018006adb8     iconv.obj
 0002:00047de0       cp1258_2uni                000000018006ade0     iconv.obj
 0002:00047ee0       gb2312_uni2indx_page20     000000018006aee0     iconv.obj
 0002:00048078       mac_cyrillic_page00        000000018006b078     iconv.obj
 0002:00048098       atarist_page23             000000018006b098     iconv.obj
 0002:000480b0       hkscs1999_uni2indx_page00  000000018006b0b0     iconv.obj
 0002:00048168       cp1133_page00              000000018006b168     iconv.obj
 0002:00048178       armscii_8_page20           000000018006b178     iconv.obj
 0002:00048190       cp950ext_uni2indx_page5a   000000018006b190     iconv.obj
 0002:000481d0       cp861_page25               000000018006b1d0     iconv.obj
 0002:00048278       cp1255_comb_table          000000018006b278     iconv.obj
 0002:00048280       cp869_2uni                 000000018006b280     iconv.obj
 0002:00048380       hkscs2004_uni2indx_page43  000000018006b380     iconv.obj
 0002:00048498       cp1258_comp_bases          000000018006b498     iconv.obj
 0002:000484c8       armscii_8_page00           000000018006b4c8     iconv.obj
 0002:000484d0       jisx0208_uni2indx_page4e   000000018006b4d0     iconv.obj
 0002:00049940       translit_page03            000000018006c940     iconv.obj
 0002:000499a0       gbkext_inv_uni2indx_page30 000000018006c9a0     iconv.obj
 0002:000499e0       hkscs2008_uni2indx_page2ad 000000018006c9e0     iconv.obj
 0002:00049a20       cp863_page00               000000018006ca20     iconv.obj
 0002:00049a80       translit_page02_1          000000018006ca80     iconv.obj
 0002:00049ad0       mac_roman_page22           000000018006cad0     iconv.obj
 0002:00049b38       hkscs2008_uni2indx_page92  000000018006cb38     iconv.obj
 0002:00049b40       cp1046_page00              000000018006cb40     iconv.obj
 0002:00049bb0       cns11643_inv_uni2indx_page2f8 000000018006cbb0     iconv.obj
 0002:00049c38       jamo_medial_index_inverse  000000018006cc38     iconv.obj
 0002:00049c50       jisx0212_2charset          000000018006cc50     iconv.obj
 0002:0004cbb8       cp950ext_uni2indx_page7c   000000018006fbb8     iconv.obj
 0002:0004cbe8       cp936ext_page01            000000018006fbe8     iconv.obj
 0002:0004cc08       hkscs2001_uni2indx_page35  000000018006fc08     iconv.obj
 0002:0004cc20       jisx0208_uni2indx_page20   000000018006fc20     iconv.obj
 0002:0004cce8       hkscs2001_uni2indx_page26b 000000018006fce8     iconv.obj
 0002:0004ccf0       cp860_page22               000000018006fcf0     iconv.obj
 0002:0004cd40       viscii_2uni_2              000000018006fd40     iconv.obj
 0002:0004ce40       riscos1_page22             000000018006fe40     iconv.obj
 0002:0004ce50       cp1253_page03              000000018006fe50     iconv.obj
 0002:0004cea0       viscii_page00              000000018006fea0     iconv.obj
 0002:0004cf98       jisx0212_uni2indx_page21   000000018006ff98     iconv.obj
 0002:0004cfa8       rk1048_page20              000000018006ffa8     iconv.obj
 0002:0004cfd8       iso8859_16_page20          000000018006ffd8     iconv.obj
 0002:0004cfe0       atarist_page22             000000018006ffe0     iconv.obj
 0002:0004d040       iso8859_15_2uni            0000000180070040     iconv.obj
 0002:0004d080       cp855_2uni                 0000000180070080     iconv.obj
 0002:0004d180       isoir165ext_uni2indx_page4e 0000000180070180     iconv.obj
 0002:0004dd40       hkscs2008_uni2indx_page38  0000000180070d40     iconv.obj
 0002:0004dd60       hkscs2001_uni2indx_page61  0000000180070d60     iconv.obj
 0002:0004dd70       mac_greek_page03           0000000180070d70     iconv.obj
 0002:0004ddc0       cp864_2uni_1               0000000180070dc0     iconv.obj
 0002:0004dde0       hkscs1999_uni2indx_pageff  0000000180070de0     iconv.obj
 0002:0004de20       cp1046_pagefe              0000000180070e20     iconv.obj
 0002:0004deb0       uhc_1_2uni_page81          0000000180070eb0     iconv.obj
 0002:0004f4f0       georgian_ps_2uni_1         00000001800724f0     iconv.obj
 0002:0004f530       cp932ext_uni2indx_page32   0000000180072530     iconv.obj
 0002:0004f5a8       hkscs2004_uni2indx_page81  00000001800725a8     iconv.obj
 0002:0004f5c8       cp1253_page00              00000001800725c8     iconv.obj
 0002:0004f5e8       hkscs2001_uni2indx_page67  00000001800725e8     iconv.obj
 0002:0004f608       cp1254_page20              0000000180072608     iconv.obj
 0002:0004f638       cp865_page03               0000000180072638     iconv.obj
 0002:0004f670       cp737_page22               0000000180072670     iconv.obj
 0002:0004f6c0       mac_croatian_2uni          00000001800726c0     iconv.obj
 0002:0004f7c0       ksc5601_uni2indx_pagef9    00000001800727c0     iconv.obj
 0002:0004f808       cp1251_page00              0000000180072808     iconv.obj
 0002:0004f828       mac_hebrew_page20          0000000180072828     iconv.obj
 0002:0004f840       gb18030ext_page49          0000000180072840     iconv.obj
 0002:0004f930       mac_turkish_page22         0000000180072930     iconv.obj
 0002:0004f998       mac_romania_page20         0000000180072998     iconv.obj
 0002:0004f9d0       cns11643_5_2uni_upages     00000001800729d0     iconv.obj
 0002:0004fd68       isoir165ext_uni2indx_page30 0000000180072d68     iconv.obj
 0002:0004fd78       hkscs2004_uni2indx_page23b 0000000180072d78     iconv.obj
 0002:0004fd80       hkscs2008_uni2indx_page57  0000000180072d80     iconv.obj
 0002:0004fde8       hkscs2001_uni2indx_page227 0000000180072de8     iconv.obj
 0002:0004fdf0       hkscs2008_uni2indx_page84  0000000180072df0     iconv.obj
 0002:0004fe78       cp1131_page00              0000000180072e78     iconv.obj
 0002:0004fe90       euc_jisx0213_comp_table_data 0000000180072e90     iconv.obj
 0002:0004fef8       mac_romania_page02         0000000180072ef8     iconv.obj
 0002:0004ff18       koi8_t_page21              0000000180072f18     iconv.obj
 0002:0004ff30       hkscs2008_uni2indx_page66  0000000180072f30     iconv.obj
 0002:0004ff98       iso8859_2_page02           0000000180072f98     iconv.obj
 0002:0004ffb8       mac_roman_pagefb           0000000180072fb8     iconv.obj
 0002:0004ffc0       cp850_page00               0000000180072fc0     iconv.obj
 0002:00050020       hkscs2001_uni2indx_page2a1 0000000180073020     iconv.obj
 0002:00050090       hkscs2008_uni2indx_page3e  0000000180073090     iconv.obj
 0002:000500d0       nextstep_page00            00000001800730d0     iconv.obj
 0002:00050130       cp1251_2uni                0000000180073130     iconv.obj
 0002:00050230       translit_pagefb            0000000180073230     iconv.obj
 0002:000502d0       stringpool2_contents       00000001800732d0     iconv.obj
 0002:00050548       cp932ext_uni2indx_page30   0000000180073548     iconv.obj
 0002:00050550       hkscs2004_uni2indx_page59  0000000180073550     iconv.obj
 0002:00050670       cp1255_2uni                0000000180073670     iconv.obj
 0002:00050770       mac_hebrew_page05          0000000180073770     iconv.obj
 0002:000507b0       hkscs2008_uni2indx_page241 00000001800737b0     iconv.obj
 0002:000507d0       gb2312_uni2indx_page00     00000001800737d0     iconv.obj
 0002:000508e8       hkscs2001_uni2indx_page251 00000001800738e8     iconv.obj
 0002:00050920       pt154_page04               0000000180073920     iconv.obj
 0002:00050a10       mac_iceland_page01         0000000180073a10     iconv.obj
 0002:00050a78       koi8_u_page23              0000000180073a78     iconv.obj
 0002:00050a80       iso8859_3_page01           0000000180073a80     iconv.obj
 0002:00050af8       hkscs2008_uni2indx_page224 0000000180073af8     iconv.obj
 0002:00050b30       viet_comp_table_data       0000000180073b30     iconv.obj
 0002:00050e58       koi8_r_page23              0000000180073e58     iconv.obj
 0002:00050e60       aliases                    0000000180073e60     iconv.obj
 0002:00052ba0       cns11643_inv_uni2indx_page20 0000000180075ba0     iconv.obj
 0002:00052c50       hkscs2004_uni2indx_page27b 0000000180075c50     iconv.obj
 0002:00052cc8       cp869_page20               0000000180075cc8     iconv.obj
 0002:00052cd8       cp1163_page20              0000000180075cd8     iconv.obj
 0002:00052ce0       hkscs2001_uni2indx_page57  0000000180075ce0     iconv.obj
 0002:00052d58       viet_comp_table            0000000180075d58     iconv.obj
 0002:00052d80       uhc_1_2uni_main_page81     0000000180075d80     iconv.obj
 0002:00052e00       cp1046_2uni                0000000180075e00     iconv.obj
 0002:00052f00       cns11643_1_2uni_page44     0000000180075f00     iconv.obj
 0002:00055938       gb18030ext_page4d          0000000180078938     iconv.obj
 0002:00055958       mac_cyrillic_page20        0000000180078958     iconv.obj
 0002:00055970       cp861_page00               0000000180078970     iconv.obj
 0002:000559d0       mac_roman_2uni             00000001800789d0     iconv.obj
 0002:00055ad0       mac_croatian_page00        0000000180078ad0     iconv.obj
 0002:00055bc8       mac_croatian_page20        0000000180078bc8     iconv.obj
 0002:00055c00       gb2312_2uni_page21         0000000180078c00     iconv.obj
 0002:00056280       translit_page2f8           0000000180079280     iconv.obj
 0002:000566c0       koi8_u_page22              00000001800796c0     iconv.obj
 0002:00056710       gb18030ext_2uni_pagea9     0000000180079710     iconv.obj
 0002:00056730       translit_page24            0000000180079730     iconv.obj
 0002:00056910       cp950ext_uni2indx_page58   0000000180079910     iconv.obj
 0002:00056940       gb18030ext_page36          0000000180079940     iconv.obj
 0002:00056970       nextstep_page02            0000000180079970     iconv.obj
 0002:00056990       viet_decomp_table          0000000180079990     iconv.obj
 0002:00056fd8       cp864_page22               0000000180079fd8     iconv.obj
 0002:00057010       shift_jisx0213_comp_table_data 000000018007a010     iconv.obj
 0002:00057078       translit_page1e_2          000000018007a078     iconv.obj
 0002:00057088       mac_ukraine_page20         000000018007a088     iconv.obj
 0002:000570a0       cp853_page25               000000018007a0a0     iconv.obj
 0002:00057148       nextstep_page20            000000018007a148     iconv.obj
 0002:00057180       koi8_ru_page04             000000018007a180     iconv.obj
 0002:00057218       mac_croatian_page21        000000018007a218     iconv.obj
 0002:00057220       mac_iceland_page22         000000018007a220     iconv.obj
 0002:00057288       hkscs2004_uni2indx_page79  000000018007a288     iconv.obj
 0002:000572c0       translit_data              000000018007a2c0     iconv.obj
 0002:00060130       hkscs2001_uni2indx_page9f  0000000180083130     iconv.obj
 0002:00060160       hkscs2001_uni2indx_page42  0000000180083160     iconv.obj
 0002:00060190       cns11643_3_2uni_upages     0000000180083190     iconv.obj
 0002:000603b0       hkscs2001_uni2indx_page25c 00000001800833b0     iconv.obj
 0002:00060400       cp1256_page06              0000000180083400     iconv.obj
 0002:000604d0       translit_pagef9            00000001800834d0     iconv.obj
 0002:000607b0       cp950ext_2charset          00000001800837b0     iconv.obj
 0002:00060808       iso8859_8_page05           0000000180083808     iconv.obj
 0002:00060828       gb18030ext_page47_2        0000000180083828     iconv.obj
 0002:00060858       cp737_page00               0000000180083858     iconv.obj
 0002:00060870       big5_uni2indx_page20       0000000180083870     iconv.obj
 0002:00060920       cp863_page22               0000000180083920     iconv.obj
 0002:00060970       big5_2uni_pagec9           0000000180083970     iconv.obj
 0002:00064538       mac_roman_page20           0000000180087538     iconv.obj
 0002:00064570       cns11643_inv_uni2indx_page02 0000000180087570     iconv.obj
 0002:000645e8       iso8859_15_page01          00000001800875e8     iconv.obj
 0002:00064618       gbkext_inv_uni2indx_page02 0000000180087618     iconv.obj
 0002:00064650       hkscs2004_uni2indx_page56  0000000180087650     iconv.obj
 0002:00064690       hkscs2004_2charset         0000000180087690     iconv.obj
 0002:00064788       gb18030ext_page9f          0000000180087788     iconv.obj
 0002:000647a8       iso8859_16_page02          00000001800877a8     iconv.obj
 0002:000647b0       hkscs1999_uni2indx_page23  00000001800877b0     iconv.obj
 0002:00064850       cp932ext_uni2indx_page83   0000000180087850     iconv.obj
 0002:00064900       tds565_page00              0000000180087900     iconv.obj
 0002:00064940       hkscs2001_uni2indx_page249 0000000180087940     iconv.obj
 0002:00064988       hkscs2001_uni2indx_page21d 0000000180087988     iconv.obj
 0002:000649b8       nextstep_pagefb            00000001800879b8     iconv.obj
 0002:000649c0       big5_uni2indx_page4e       00000001800879c0     iconv.obj
 0002:00065e30       gb18030ext_page4c          0000000180088e30     iconv.obj
 0002:00065ea0       mac_greek_page00           0000000180088ea0     iconv.obj
 0002:00065f00       cp857_2uni                 0000000180088f00     iconv.obj
 0002:00066000       georgian_ps_page20         0000000180089000     iconv.obj
 0002:00066030       cp1256_page00              0000000180089030     iconv.obj
 0002:00066090       hkscs2004_uni2indx_page3f  0000000180089090     iconv.obj
 0002:00066150       hkscs2004_2uni_upages      0000000180089150     iconv.obj
 0002:00066288       cp1254_2uni_3              0000000180089288     iconv.obj
 0002:000662a8       hkscs2001_uni2indx_page88  00000001800892a8     iconv.obj
 0002:000662d0       cns11643_inv_uni2indx_page00 00000001800892d0     iconv.obj
 0002:00066310       atarist_page01             0000000180089310     iconv.obj
 0002:00066378       hkscs2004_uni2indx_page221 0000000180089378     iconv.obj
 0002:000663b0       hkscs2001_2uni_upages      00000001800893b0     iconv.obj
 0002:00066508       cp1252_page02              0000000180089508     iconv.obj
 0002:00066528       cp950ext_uni2indx_page88   0000000180089528     iconv.obj
 0002:00066560       ksc5601_uni2indx_page00    0000000180089560     iconv.obj
 0002:00066678       mac_roman_page21           0000000180089678     iconv.obj
 0002:00066680       mac_ukraine_page22         0000000180089680     iconv.obj
 0002:000666e8       mac_turkish_page20         00000001800896e8     iconv.obj
 0002:00066710       cp853_2uni                 0000000180089710     iconv.obj
 0002:00066810       iso8859_13_2uni            0000000180089810     iconv.obj
 0002:000668d0       tcvn_2uni_2                00000001800898d0     iconv.obj
 0002:000669d0       cp856_page05               00000001800899d0     iconv.obj
 0002:000669f0       jisx0213_from_ucs_level2_2indx 00000001800899f0     iconv.obj
 0002:00069450       cp437_page22               000000018008c450     iconv.obj
 0002:000694a0       cns11643_5_2uni_page21     000000018008c4a0     iconv.obj
 0002:0006d7d8       translit_page2a            00000001800907d8     iconv.obj
 0002:0006d7e8       mac_centraleurope_page22_1 00000001800907e8     iconv.obj
 0002:0006d7f0       iso8859_13_page00          00000001800907f0     iconv.obj
 0002:0006d8d0       hkscs2008_uni2indx_page6a  00000001800908d0     iconv.obj
 0002:0006d8e0       cp1129_page00              00000001800908e0     iconv.obj
 0002:0006d9f0       uhc_2_2uni_main_pagea1     00000001800909f0     iconv.obj
 0002:0006da88       gb18030ext_page47_1        0000000180090a88     iconv.obj
 0002:0006daa8       hkscs2004_uni2indx_page3b  0000000180090aa8     iconv.obj
 0002:0006dad0       cp869_page03               0000000180090ad0     iconv.obj
 0002:0006db20       hkscs2001_uni2indx_page26d 0000000180090b20     iconv.obj
 0002:0006db40       cp932ext_2uni_pageed       0000000180090b40     iconv.obj
 0002:0006de30       gbkext_inv_2charset        0000000180090e30     iconv.obj
 0002:00074e08       hkscs2001_uni2indx_page28d 0000000180097e08     iconv.obj
 0002:00074e38       cp874_page20               0000000180097e38     iconv.obj
 0002:00074e50       cp852_page00               0000000180097e50     iconv.obj
 0002:00074f30       hkscs2001_uni2indx_page4e  0000000180097f30     iconv.obj
 0002:00075020       big5_2003_2charset_page25  0000000180098020     iconv.obj
 0002:00075040       mac_thai_2uni              0000000180098040     iconv.obj
 0002:00075140       iso8859_7_2uni             0000000180098140     iconv.obj
 0002:00075200       jisx0212_uni2indx_page00   0000000180098200     iconv.obj
 0002:00075318       koi8_ru_page23             0000000180098318     iconv.obj
 0002:00075320       cp1258_page00              0000000180098320     iconv.obj
 0002:00075378       cp950ext_uni2indx_page78   0000000180098378     iconv.obj
 0002:000753a0       hkscs2008_2uni_page87      00000001800983a0     iconv.obj
 0002:000754a0       cp932ext_uni2indx_page5f   00000001800984a0     iconv.obj
 0002:00075bc8       hkscs2004_uni2indx_page2a1 0000000180098bc8     iconv.obj
 0002:00075bf8       cp1133_2uni_2              0000000180098bf8     iconv.obj
 0002:00075c18       ksc5601_uni2indx_pageff    0000000180098c18     iconv.obj
 0002:00075c58       hkscs2001_uni2indx_page23c 0000000180098c58     iconv.obj
 0002:00075c78       koi8_t_page20              0000000180098c78     iconv.obj
 0002:00075ca8       hkscs2001_uni2indx_page241 0000000180098ca8     iconv.obj
 0002:00075cc0       hp_roman8_page00           0000000180098cc0     iconv.obj
 0002:00075d20       hkscs1999_uni2indx_page297 0000000180098d20     iconv.obj
 0002:00076110       cp1250_page02              0000000180099110     iconv.obj
 0002:00076130       isoir165ext_2uni_page2b    0000000180099130     iconv.obj
 0002:000764e0       ksc5601_2uni_page4a        00000001800994e0     iconv.obj
 0002:00078b10       hkscs2004_uni2indx_page235 000000018009bb10     iconv.obj
 0002:00078b58       cp1256_page20              000000018009bb58     iconv.obj
 0002:00078b90       cp1125_page25              000000018009bb90     iconv.obj
 0002:00078c38       iso8859_14_page01_1        000000018009bc38     iconv.obj
 0002:00078c48       hkscs2001_uni2indx_page219 000000018009bc48     iconv.obj
 0002:00078c70       mac_hebrew_page00          000000018009bc70     iconv.obj
 0002:00078cd0       atarist_page05             000000018009bcd0     iconv.obj
 0002:00078cf0       big5_2003_2uni_pagef9      000000018009bcf0     iconv.obj
 0002:00078d48       mac_thai_page00            000000018009bd48     iconv.obj
 0002:00078d68       hkscs2004_uni2indx_page227 000000018009bd68     iconv.obj
 0002:00078d90       gb2312_2uni_page30         000000018009bd90     iconv.obj
 0002:0007c270       gbkext_inv_uni2indx_pagefe 000000018009f270     iconv.obj
 0002:0007c2f0       mac_ukraine_page00         000000018009f2f0     iconv.obj
 0002:0007c310       jisx0208_2uni_page21       000000018009f310     iconv.obj
 0002:0007c878       xbase64_tab                000000018009f878     iconv.obj
 0002:0007c888       hkscs2001_uni2indx_page26f 000000018009f888     iconv.obj
 0002:0007c8b8       hp_roman8_page02           000000018009f8b8     iconv.obj
 0002:0007c8d8       hkscs2004_uni2indx_page289 000000018009f8d8     iconv.obj
 0002:0007c8f8       tcvn_comp_bases            000000018009f8f8     iconv.obj
 0002:0007c928       cp863_page23               000000018009f928     iconv.obj
 0002:0007c940       mac_hebrew_2uni            000000018009f940     iconv.obj
 0002:0007ca40       cp1124_page04              000000018009fa40     iconv.obj
 0002:0007cad8       cp862_page03               000000018009fad8     iconv.obj
 0002:0007cb10       iso8859_14_page00          000000018009fb10     iconv.obj
 0002:0007cb70       cns11643_3_2uni_page21     000000018009fb70     iconv.obj
 0002:0007fb78       cp860_page03               00000001800a2b78     iconv.obj
 0002:0007fbb0       mac_cyrillic_page04        00000001800a2bb0     iconv.obj
 0002:0007fc10       hkscs1999_2uni_pagec6      00000001800a2c10     iconv.obj
 0002:0007ffc0       hkscs2004_uni2indx_page4c  00000001800a2fc0     iconv.obj
 0002:00080028       cp1254_page00              00000001800a3028     iconv.obj
 0002:00080058       jisx0212_uni2indx_pageff   00000001800a3058     iconv.obj
 0002:00080070       cp1125_page04              00000001800a3070     iconv.obj
 0002:00080108       cp932ext_uni2indx_pageff   00000001800a3108     iconv.obj
 0002:00080148       hkscs2004_uni2indx_page242 00000001800a3148     iconv.obj
 0002:00080178       hkscs2004_uni2indx_page74  00000001800a3178     iconv.obj
 0002:000801a0       ksc5601_2uni_page30        00000001800a31a0     iconv.obj
 0002:00081400       cp932ext_2uni_page87       00000001800a4400     iconv.obj
 0002:000814b8       hkscs2004_uni2indx_page34  00000001800a44b8     iconv.obj
 0002:000814d0       cp932ext_uni2indx_page4e   00000001800a44d0     iconv.obj
 0002:000816b8       translit_page20_3          00000001800a46b8     iconv.obj
 0002:000816c8       iso8859_13_page20          00000001800a46c8     iconv.obj
 0002:000816d0       cns11643_1_2uni_page42     00000001800a46d0     iconv.obj
 0002:00081718       cp1258_page02              00000001800a4718     iconv.obj
 0002:00081738       cp437_page03               00000001800a4738     iconv.obj
 0002:00081770       iso8859_6_2uni             00000001800a4770     iconv.obj
 0002:00081830       hkscs2008_uni2indx_page27b 00000001800a4830     iconv.obj
 0002:00081850       tds565_2uni                00000001800a4850     iconv.obj
 0002:000818d0       cp865_page00               00000001800a48d0     iconv.obj
 0002:00081930       jisx0212_2uni_page22       00000001800a4930     iconv.obj
 0002:000819d8       cp1124_page00              00000001800a49d8     iconv.obj
 0002:000819e8       hkscs2008_uni2indx_page20a 00000001800a49e8     iconv.obj
 0002:00081a10       hkscs2008_2uni_upages      00000001800a4a10     iconv.obj
 0002:00081ad8       cp863_page03               00000001800a4ad8     iconv.obj
 0002:00081b10       mac_turkish_page00         00000001800a4b10     iconv.obj
 0002:00081b70       gb18030ext_page46          00000001800a4b70     iconv.obj
 0002:00081bb0       cns11643_inv_uni2indx_page200 00000001800a4bb0     iconv.obj
 0002:00084568       cp865_page23               00000001800a7568     iconv.obj
 0002:00084580       iso8859_3_2uni             00000001800a7580     iconv.obj
 0002:00084640       cp864_page25               00000001800a7640     iconv.obj
 0002:00084680       iso8859_16_page00          00000001800a7680     iconv.obj
 0002:00084760       hkscs2001_uni2indx_page82  00000001800a7760     iconv.obj
 0002:000847a0       koi8_u_page00              00000001800a77a0     iconv.obj
 0002:000847f8       cp861_page03               00000001800a77f8     iconv.obj
 0002:00084830       hp_roman8_2uni             00000001800a7830     iconv.obj
 0002:000848f0       iso8859_7_page03           00000001800a78f0     iconv.obj
 0002:00084948       jamo_initial_index_inverse 00000001800a7948     iconv.obj
 0002:00084960       hkscs2004_uni2indx_page3d  00000001800a7960     iconv.obj
 0002:000849a0       mac_roman_page01           00000001800a79a0     iconv.obj
 0002:00084a08       cp1255_page20              00000001800a7a08     iconv.obj
 0002:00084a40       jisx0213_from_ucs_level2_data 00000001800a7a40     iconv.obj
 0002:0008a1d0       translit_pageff            00000001800ad1d0     iconv.obj
 0002:0008a3b0       cp1258_page20              00000001800ad3b0     iconv.obj
 0002:0008a3e0       translit_page25            00000001800ad3e0     iconv.obj
 0002:0008a460       cp1254_2uni_1              00000001800ad460     iconv.obj
 0002:0008a4a0       translit_page2f            00000001800ad4a0     iconv.obj
 0002:0008a650       hkscs2004_uni2indx_page71  00000001800ad650     iconv.obj
 0002:0008a6a0       gb18030_pua2charset        00000001800ad6a0     iconv.obj
 0002:0008a760       cp856_page00               00000001800ad760     iconv.obj
 0002:0008a7b8       cp869_page00               00000001800ad7b8     iconv.obj
 0002:0008a7d8       pt154_page00               00000001800ad7d8     iconv.obj
 0002:0008a7f8       cp1254_page02              00000001800ad7f8     iconv.obj
 0002:0008a818       hkscs2008_uni2indx_page49  00000001800ad818     iconv.obj
 0002:0008a828       riscos1_page01             00000001800ad828     iconv.obj
 0002:0008a850       cp1129_2uni                00000001800ad850     iconv.obj
 0002:0008a910       big5_2003_2uni_pagea1      00000001800ad910     iconv.obj
 0002:0008ab88       cp1250_page20              00000001800adb88     iconv.obj
 0002:0008abb8       cp950ext_uni2indx_page25   00000001800adbb8     iconv.obj
 0002:0008abe0       cns11643_4a_2uni_page21    00000001800adbe0     iconv.obj
 0002:0008c2a8       jamo_medial_index          00000001800af2a8     iconv.obj
 0002:0008c2c8       hkscs2004_uni2indx_page2a3 00000001800af2c8     iconv.obj
 0002:0008c2e0       cp1250_2uni                00000001800af2e0     iconv.obj
 0002:0008c3e0       cp932ext_uni2indx_page57   00000001800af3e0     iconv.obj
 0002:0008c490       hkscs2004_uni2indx_page21a 00000001800af490     iconv.obj
 0002:0008c4b0       translit_page05            00000001800af4b0     iconv.obj
 0002:0008c4c0       hkscs2004_uni2indx_page23e 00000001800af4c0     iconv.obj
 0002:0008c580       cp1254_page01              00000001800af580     iconv.obj
 0002:0008c600       gb18030ext_page34          00000001800af600     iconv.obj
 0002:0008c670       jisx0208_2uni_page30       00000001800af670     iconv.obj
 0002:0008f870       hkscs2004_uni2indx_page36  00000001800b2870     iconv.obj
 0002:0008f950       gb2312_uni2indx_page30     00000001800b2950     iconv.obj
 0002:0008f9e0       ksc5601_2uni_page21        00000001800b29e0     iconv.obj
 0002:00090298       cp936ext_page02            00000001800b3298     iconv.obj
 0002:000902c8       iso8859_14_page1e_1        00000001800b32c8     iconv.obj
 0002:000902d0       cp853_page00               00000001800b32d0     iconv.obj
 0002:00090330       iso8859_8_page00           00000001800b3330     iconv.obj
 0002:00090388       tcvn_2uni_1                00000001800b3388     iconv.obj
 0002:000903b8       iso8859_6_page00           00000001800b33b8     iconv.obj
 0002:000903c8       hkscs2004_uni2indx_page254 00000001800b33c8     iconv.obj
 0002:000903f0       isoir165ext_uni2indx_page32 00000001800b33f0     iconv.obj
 0002:00090470       cns11643_4a_2uni_upages    00000001800b3470     iconv.obj
 0002:000907c0       big5_2003_2uni_pagec6      00000001800b37c0     iconv.obj
 0002:00090850       gbkext_inv_uni2indx_page32 00000001800b3850     iconv.obj
 0002:000908c8       hkscs2008_uni2indx_page97  00000001800b38c8     iconv.obj
 0002:000908e0       big5_uni2indx_page30       00000001800b38e0     iconv.obj
 0002:000909d8       hkscs2001_uni2indx_page8b  00000001800b39d8     iconv.obj
 0002:00090a00       translit_page1e            00000001800b3a00     iconv.obj
 0002:00090b40       rk1048_page04              00000001800b3b40     iconv.obj
 0002:00090c30       iso8859_2_2uni             00000001800b3c30     iconv.obj
 0002:00090cf0       hkscs2008_uni2indx_page70  00000001800b3cf0     iconv.obj
 0002:00090d10       cp936ext_2uni_pagea6       00000001800b3d10     iconv.obj
 0002:00090d40       cp950_2uni_pagea1          00000001800b3d40     iconv.obj
 0002:00090fb8       iso8859_4_page02           00000001800b3fb8     iconv.obj
 0002:00090fd8       tcvn_page03                00000001800b3fd8     iconv.obj
 0002:00091000       tcvn_page1e                00000001800b4000     iconv.obj
 0002:00091060       iso8859_8_2uni             00000001800b4060     iconv.obj
 0002:00091120       pt154_2uni                 00000001800b4120     iconv.obj
 0002:000911a0       cp861_2uni                 00000001800b41a0     iconv.obj
 0002:000912a0       cp1251_page20              00000001800b42a0     iconv.obj
 0002:000912d0       translit_page30            00000001800b42d0     iconv.obj
 0002:000914c0       hkscs2004_uni2indx_page298 00000001800b44c0     iconv.obj
 0002:00091518       isoir165ext_uni2indx_page03 00000001800b4518     iconv.obj
 0002:00091548       iso8859_3_page02           00000001800b4548     iconv.obj
 0002:00091550       hkscs2008_uni2indx_page79  00000001800b4550     iconv.obj
 0002:00091608       translit_page02            00000001800b4608     iconv.obj
 0002:00091618       hkscs2008_uni2indx_page26e 00000001800b4618     iconv.obj
 0002:00091640       tds565_page00_1            00000001800b4640     iconv.obj
 0002:00091680       koi8_ru_page25             00000001800b4680     iconv.obj
 0002:00091730       big5_2charset              00000001800b4730     iconv.obj
 0002:00098240       hkscs2004_uni2indx_page21d 00000001800bb240     iconv.obj
 0002:00098290       cp1255_page05              00000001800bb290     iconv.obj
 0002:000982d8       jisx0208_uni2indx_pageff   00000001800bb2d8     iconv.obj
 0002:00098318       xdirect_tab                00000001800bb318     iconv.obj
 0002:00098328       cp855_page00               00000001800bb328     iconv.obj
 0002:00098350       cp950ext_2uni_pagef9       00000001800bb350     iconv.obj
 0002:000983a8       cp1254_2uni_2              00000001800bb3a8     iconv.obj
 0002:000983d0       georgian_ps_2uni_2         00000001800bb3d0     iconv.obj
 0002:00098420       hkscs2004_2uni_page87      00000001800bb420     iconv.obj
 0002:000984a0       cp1125_2uni                00000001800bb4a0     iconv.obj
 0002:00098540       jisx0212_2uni_page26       00000001800bb540     iconv.obj
 0002:000986c0       mac_iceland_page00         00000001800bb6c0     iconv.obj
 0002:00098720       hkscs2008_uni2indx_page94  00000001800bb720     iconv.obj
 0002:00098730       cp1046_pagef8              00000001800bb730     iconv.obj
 0002:00098740       hkscs1999_uni2indx_page2e  00000001800bb740     iconv.obj
 0002:00098850       viscii_2uni_1              00000001800bb850     iconv.obj
 0002:00098890       jamo_initial_index         00000001800bb890     iconv.obj
 0002:000988b0       iso8859_6_page06           00000001800bb8b0     iconv.obj
 0002:00098900       jisx0213_from_ucs_level1   00000001800bb900     iconv.obj
 0002:00099e40       mac_arabic_2uni            00000001800bce40     iconv.obj
 0002:00099f40       iso8859_5_page00           00000001800bcf40     iconv.obj
 0002:00099f50       ksc5601_uni2indx_page4e    00000001800bcf50     iconv.obj
 0002:0009b3c0       mac_greek_2uni             00000001800be3c0     iconv.obj
 0002:0009b4c0       mac_croatian_page22        00000001800be4c0     iconv.obj
 0002:0009b528       cp1257_page20              00000001800be528     iconv.obj
 0002:0009b558       hkscs1999_uni2indx_page27  00000001800be558     iconv.obj
 0002:0009b570       cjk_variants               00000001800be570     iconv.obj
 0002:000a1380       uhc_1_uni2indx_pageac      00000001800c4380     iconv.obj
 0002:000a1ab0       cp932ext_uni2indx_page88   00000001800c4ab0     iconv.obj
 0002:000a1c70       gb2312_2charset            00000001800c4c70     iconv.obj
 0002:000a56a0       jamo_final                 00000001800c86a0     iconv.obj
 0002:000a56c0       hkscs1999_2uni_page8d      00000001800c86c0     iconv.obj
 0002:000a6f50       hkscs2001_uni2indx_page69  00000001800c9f50     iconv.obj
 0002:000a6fb0       cp932ext_uni2indx_page21   00000001800c9fb0     iconv.obj
 0002:000a7020       jamo_final_index           00000001800ca020     iconv.obj
 0002:000a7040       gbkext_inv_uni2indx_page25 00000001800ca040     iconv.obj
 0002:000a7090       cp857_page00               00000001800ca090     iconv.obj
 0002:000a70f0       cp866_page04               00000001800ca0f0     iconv.obj
 0002:000a7150       cns11643_6_2uni_upages     00000001800ca150     iconv.obj
 0002:000a7480       iso2022_jp3_comp_table_data 00000001800ca480     iconv.obj
 0002:000a74f0       cp1046_page06              00000001800ca4f0     iconv.obj
 0002:000a7560       big5_uni2indx_page02       00000001800ca560     iconv.obj
 0002:000a7600       cp852_2uni                 00000001800ca600     iconv.obj
 0002:000a7700       georgian_academy_page00    00000001800ca700     iconv.obj
 0002:000a7720       stringpool_contents        00000001800ca720     iconv.obj
 0002:000a8510       translit_page00            00000001800cb510     iconv.obj
 0002:000a87c0       cp1131_page25              00000001800cb7c0     iconv.obj
 0002:000a8860       hkscs1999_2uni_page88      00000001800cb860     iconv.obj
 0002:000a8d50       koi8_u_page25              00000001800cbd50     iconv.obj
 0002:000a8e00       cp869_page25               00000001800cbe00     iconv.obj
 0002:000a8eb0       iso8859_5_page04           00000001800cbeb0     iconv.obj
 0002:000a8f10       hkscs2001_uni2indx_page232 00000001800cbf10     iconv.obj
 0002:000a8f90       gbkext_inv_uni2indx_page20 00000001800cbf90     iconv.obj
 0002:000a9040       cns11643_7_2uni_upages     00000001800cc040     iconv.obj
 0002:000a9360       hkscs2004_uni2indx_page66  00000001800cc360     iconv.obj
 0002:000a93c0       gb18030uni_ranges          00000001800cc3c0     iconv.obj
 0002:000a9560       johab_hangul_page31        00000001800cc560     iconv.obj
 0002:000a95d0       gb18030uni_uni2charset_ranges 00000001800cc5d0     iconv.obj
 0002:000a9910       hkscs2004_uni2indx_page201 00000001800cc910     iconv.obj
 0002:000a9960       rk1048_2uni                00000001800cc960     iconv.obj
 0002:000a9a60       cp857_page01               00000001800cca60     iconv.obj
 0002:000a9aa8       hkscs2001_uni2indx_page214 00000001800ccaa8     iconv.obj
 0002:000a9ac0       cp853_page01               00000001800ccac0     iconv.obj
 0002:000a9b40       iso8859_3_page00           00000001800ccb40     iconv.obj
 0002:000a9ba0       hkscs2008_uni2indx_page43  00000001800ccba0     iconv.obj
 0002:000a9c20       rk1048_page00              00000001800ccc20     iconv.obj
 0002:000a9c40       riscos1_page21             00000001800ccc40     iconv.obj
 0002:000a9c50       cp950ext_uni2indx_page92   00000001800ccc50     iconv.obj
 0002:000a9c80       translit_page0e            00000001800ccc80     iconv.obj
 0002:000a9ce0       mac_centraleurope_page00   00000001800ccce0     iconv.obj
 0002:000a9dc0       hkscs2004_2uni_page8c      00000001800ccdc0     iconv.obj
 0002:000a9f40       tds565_page01              00000001800ccf40     iconv.obj
 0002:000a9f80       cp864_page06               00000001800ccf80     iconv.obj
 0002:000a9ff0       uhc_2_2charset             00000001800ccff0     iconv.obj
 0002:000aac28       cp1252_page20              00000001800cdc28     iconv.obj
 0002:000aac60       cns11643_1_2uni_page21     00000001800cdc60     iconv.obj
 0002:000ab050       big5_uni2indx_page00       00000001800ce050     iconv.obj
 0002:000ab090       hkscs2004_uni2indx_page8a  00000001800ce090     iconv.obj
 0002:000ab0d0       gb18030ext_page39          00000001800ce0d0     iconv.obj
 0002:000ab100       koi8_r_page04              00000001800ce100     iconv.obj
 0002:000ab160       koi8_ru_2uni               00000001800ce160     iconv.obj
 0002:000ab260       cns11643_inv_uni2indx_pagefe 00000001800ce260     iconv.obj
 0002:000ab2e0       translit_page1d4           00000001800ce2e0     iconv.obj
 0002:000abae0       ksc5601_uni2indx_page30    00000001800ceae0     iconv.obj
 0002:000abbd8       koi8_t_page00              00000001800cebd8     iconv.obj
 0002:000abc00       cp1124_2uni                00000001800cec00     iconv.obj
 0002:000abcc0       mac_roman_page00           00000001800cecc0     iconv.obj
 0002:000abd20       cp860_page25               00000001800ced20     iconv.obj
 0002:000abdc8       hkscs2004_uni2indx_page286 00000001800cedc8     iconv.obj
 0002:000abdf8       iso8859_7_page20           00000001800cedf8     iconv.obj
 0002:000abe10       hkscs2008_uni2indx_page3a  00000001800cee10     iconv.obj
 0002:000abe50       cp936ext_2uni_pagea8       00000001800cee50     iconv.obj
 0002:000abe60       mac_turkish_page02         00000001800cee60     iconv.obj
 0002:000abe80       iso8859_9_2uni             00000001800cee80     iconv.obj
 0002:000abee0       hkscs2008_2charset         00000001800ceee0     iconv.obj
 0002:000abf70       koi8_r_page00              00000001800cef70     iconv.obj
 0002:000abfd0       hkscs2001_uni2indx_page7a  00000001800cefd0     iconv.obj
 0002:000ac0f0       mac_centraleurope_page22   00000001800cf0f0     iconv.obj
 0002:000ac110       cp775_page00               00000001800cf110     iconv.obj
 0002:000ac1f0       koi8_u_2uni                00000001800cf1f0     iconv.obj
 0002:000ac2f0       koi8_t_2uni                00000001800cf2f0     iconv.obj
 0002:000ac3f0       koi8_ru_page22             00000001800cf3f0     iconv.obj
 0002:000ac440       cp922_2uni_1               00000001800cf440     iconv.obj
 0002:000ac460       hkscs2004_uni2indx_page272 00000001800cf460     iconv.obj
 0002:000ac4e0       cp932ext_uni2indx_page90   00000001800cf4e0     iconv.obj
 0002:000ac898       hkscs2008_uni2indx_page46  00000001800cf898     iconv.obj
 0002:000ac8d0       koi8_u_page04              00000001800cf8d0     iconv.obj
 0002:000ac968       hkscs2001_uni2indx_page220 00000001800cf968     iconv.obj
 0002:000ac990       nextstep_page01            00000001800cf990     iconv.obj
 0002:000ac9f8       iso8859_8_page20           00000001800cf9f8     iconv.obj
 0002:000aca10       iso8859_10_2uni            00000001800cfa10     iconv.obj
 0002:000acad0       iso8859_10_page00          00000001800cfad0     iconv.obj
 0002:000acbb0       iso8859_9_page00           00000001800cfbb0     iconv.obj
 0002:000acbe0       hkscs2001_uni2indx_page4b  00000001800cfbe0     iconv.obj
 0002:000acc50       cp437_page00               00000001800cfc50     iconv.obj
 0002:000accb0       hkscs2004_uni2indx_page26b 00000001800cfcb0     iconv.obj
 0002:000acd10       jisx0212_2uni_page29       00000001800cfd10     iconv.obj
 0002:000acf38       translit_page06            00000001800cff38     iconv.obj
 0002:000acf60       gbkext1_2uni_page81        00000001800cff60     iconv.obj
 0002:000afee0       cp932ext_uni2indx_page5b   00000001800d2ee0     iconv.obj
 0002:000affa0       cp932ext_uni2indx_pagef9   00000001800d2fa0     iconv.obj
 0002:000afff0       translit_page0f            00000001800d2ff0     iconv.obj
 0002:000b0010       cns11643_inv_uni2indx_page30 00000001800d3010     iconv.obj
 0002:000b1c00       hkscs2004_uni2indx_page4f  00000001800d4c00     iconv.obj
 0002:000b1c30       sysdep_aliases             00000001800d4c30     iconv.obj
 0002:000b1eb0       hkscs2001_uni2indx_page6c  00000001800d4eb0     iconv.obj
 0002:000b1f30       iso8859_14_page1e_0        00000001800d4f30     iconv.obj
 0002:000b1fc0       jisx0213_to_ucs_pagestart  00000001800d4fc0     iconv.obj
 0002:000b23b0       cns11643_inv_2charset      00000001800d53b0     iconv.obj
 0002:000dad70       iso8859_4_2uni             00000001800fdd70     iconv.obj
 0002:000dae30       mac_turkish_page01         00000001800fde30     iconv.obj
 0002:000daeb0       cp1255_comp_table          00000001800fdeb0     iconv.obj
 0002:000daef0       cp1046_page25              00000001800fdef0     iconv.obj
 0002:000daf10       mac_arabic_page00          00000001800fdf10     iconv.obj
 0002:000daf70       cp866_2uni                 00000001800fdf70     iconv.obj
 0002:000db010       cp1252_2uni                00000001800fe010     iconv.obj
 0002:000db050       isoir165ext_uni2indx_page1e 00000001800fe050     iconv.obj
 0002:000db0c0       cp437_page25               00000001800fe0c0     iconv.obj
 0002:000db170       cp864_page00_1             00000001800fe170     iconv.obj
 0002:000db1d0       hkscs2008_uni2indx_page40  00000001800fe1d0     iconv.obj
 0002:000db240       iso8859_2_page00           00000001800fe240     iconv.obj
 0002:000db320       hkscs2004_uni2indx_page20a 00000001800fe320     iconv.obj
 0002:000db390       cp852_page25               00000001800fe390     iconv.obj
 0002:000db438       jamo_medial                00000001800fe438     iconv.obj
 0002:000db460       jisx0208_uni2indx_page25   00000001800fe460     iconv.obj
 0002:000db4c0       jisx0208_uni2indx_page03   00000001800fe4c0     iconv.obj
 0002:000db518       mac_centraleurope_page20   00000001800fe518     iconv.obj
 0002:000db550       armscii_8_page05           00000001800fe550     iconv.obj
 0002:000db5b0       cp855_page04               00000001800fe5b0     iconv.obj
 0002:000db610       hkscs2001_uni2indx_page29c 00000001800fe610     iconv.obj
 0002:000db630       iso8859_15_page00          00000001800fe630     iconv.obj
 0002:000db650       gb18030ext_2uni_pagefe     00000001800fe650     iconv.obj
 0002:000db7d0       cp922_page00               00000001800fe7d0     iconv.obj
 0002:000db830       jisx0208_uni2indx_page00   00000001800fe830     iconv.obj
 0002:000db870       translit_page22_4          00000001800fe870     iconv.obj
 0002:000db8d0       cp737_page25               00000001800fe8d0     iconv.obj
 0002:000db978       jamo_final_notinitial      00000001800fe978     iconv.obj
 0002:000db9a0       cp1253_2uni                00000001800fe9a0     iconv.obj
 0002:000dbaa0       cp863_2uni                 00000001800feaa0     iconv.obj
 0002:000dbba0       mac_ukraine_2uni           00000001800feba0     iconv.obj
 0002:000dbca0       hkscs2001_uni2indx_page3c  00000001800feca0     iconv.obj
 0002:000dbd60       hkscs1999_uni2indx_page294 00000001800fed60     iconv.obj
 0002:000dbde0       cp856_2uni                 00000001800fede0     iconv.obj
 0002:000dbee0       cp1250_page00              00000001800feee0     iconv.obj
 0002:000dbfc0       hkscs2001_uni2indx_page53  00000001800fefc0     iconv.obj
 0002:000dc010       isoir165ext_uni2indx_page94 00000001800ff010     iconv.obj
 0002:000dc250       cp861_page22               00000001800ff250     iconv.obj
 0002:000dc2a0       hkscs2001_uni2indx_page97  00000001800ff2a0     iconv.obj
 0002:000dc360       iso8859_9_page01           00000001800ff360     iconv.obj
 0002:000dc3b0       cp865_page22               00000001800ff3b0     iconv.obj
 0002:000dc400       ksc5601_2charset           00000001800ff400     iconv.obj
 0002:000e0450       mac_ukraine_page04         0000000180103450     iconv.obj
 0002:000e04f0       hkscs2001_2charset         00000001801034f0     iconv.obj
 0002:000e05e0       hkscs2001_uni2indx_page76  00000001801035e0     iconv.obj
 0002:000e06a0       gbkext_inv_uni2indx_page4e 00000001801036a0     iconv.obj
 0002:000e1b10       georgian_academy_2uni      0000000180104b10     iconv.obj
 0002:000e1b50       cp850_page25               0000000180104b50     iconv.obj
 0002:000e1bf8       mac_thai_pagef8            0000000180104bf8     iconv.obj
 0002:000e1c20       cp1258_page01              0000000180104c20     iconv.obj
 0002:000e1c90       mac_cyrillic_page22        0000000180104c90     iconv.obj
 0002:000e1d00       georgian_academy_page01    0000000180104d00     iconv.obj
 0002:000e1d50       mac_centraleurope_2uni     0000000180104d50     iconv.obj
 0002:000e1e50       jisx0212_uni2indx_page4e   0000000180104e50     iconv.obj
 0002:000e32c0       hkscs1999_uni2indx_page2f8 00000001801062c0     iconv.obj
 0002:000e3340       cp932ext_2uni_pagefa       0000000180106340     iconv.obj
 0002:000e3650       gb18030uni_charset2uni_ranges 0000000180106650     iconv.obj
 0002:000e3990       translit_page20            0000000180106990     iconv.obj
 0002:000e3a40       mac_greek_page22           0000000180106a40     iconv.obj
 0002:000e3a60       hkscs2004_uni2indx_page97  0000000180106a60     iconv.obj
 0002:000e3ac0       cp1133_2uni_1              0000000180106ac0     iconv.obj
 0002:000e3b40       hkscs2001_uni2indx_page91  0000000180106b40     iconv.obj
 0002:000e3c00       hkscs2001_uni2indx_page8e  0000000180106c00     iconv.obj
 0002:000e3c80       mac_turkish_2uni           0000000180106c80     iconv.obj
 0002:000e3d80       atarist_page00             0000000180106d80     iconv.obj
 0002:000e3de0       mac_thai_page20            0000000180106de0     iconv.obj
 0002:000e3e00       gb18030ext_pagefe          0000000180106e00     iconv.obj
 0002:000e3e20       cp1255_page02              0000000180106e20     iconv.obj
 0002:000e3e40       cns11643_inv_uni2indx_pagefa 0000000180106e40     iconv.obj
 0002:000e3e50       cp860_2uni                 0000000180106e50     iconv.obj
 0002:000e45d0       $unwind$?FunctionCallbackWrapper@imp@Nan@@YAXAEBV?$FunctionCallbackInfo@VValue@v8@@@v8@@@Z 00000001801075d0     binding.obj
 0002:000e45e0       $unwind$?New@?$Factory@VFunctionTemplate@v8@@@imp@Nan@@SA?AV?$Local@VFunctionTemplate@v8@@@v8@@P6AXAEBV?$FunctionCallbackInfo@VValue@v8@@@3@@ZV?$Local@VValue@v8@@@5@V?$Local@VSignature@v8@@@5@@Z 00000001801075e0     binding.obj
 0002:000e45ec       $chain$0$?New@?$Factory@VFunctionTemplate@v8@@@imp@Nan@@SA?AV?$Local@VFunctionTemplate@v8@@@v8@@P6AXAEBV?$FunctionCallbackInfo@VValue@v8@@@3@@ZV?$Local@VValue@v8@@@5@V?$Local@VSignature@v8@@@5@@Z 00000001801075ec     binding.obj
 0002:000e4600       $chain$1$?New@?$Factory@VFunctionTemplate@v8@@@imp@Nan@@SA?AV?$Local@VFunctionTemplate@v8@@@v8@@P6AXAEBV?$FunctionCallbackInfo@VValue@v8@@@3@@ZV?$Local@VValue@v8@@@5@V?$Local@VSignature@v8@@@5@@Z 0000000180107600     binding.obj
 0002:000e4610       $unwind$big5_2003_mbtowc   0000000180107610     iconv.obj
 0002:000e4610       $unwind$__scrt_uninitialize_crt 0000000180107610     LIBCMT:utility.obj
 0002:000e4610       $unwind$_fflush_nolock     0000000180107610     libucrt:fflush.obj
 0002:000e4610       $unwind$uninitialize_allocated_memory 0000000180107610     libucrt:initialization.obj
 0002:000e4610       $unwind$?DloadReleaseSectionWriteAccess@@YAXXZ 0000000180107610     DelayImp:delayhlp.obj
 0002:000e4610       $unwind$??_Gtype_info@@UEAAPEAXI@Z 0000000180107610     LIBCMT:std_type_info_static.obj
 0002:000e4610       $unwind$__scrt_initialize_crt 0000000180107610     LIBCMT:utility.obj
 0002:000e4610       $unwind$_set_statfp        0000000180107610     libucrt:fpctrl.obj
 0002:000e4610       $unwind$??2@YAPEAX_K@Z     0000000180107610     LIBCMT:new_scalar.obj
 0002:000e4610       $unwind$??0bad_array_new_length@std@@QEAA@AEBV01@@Z 0000000180107610     LIBCMT:throw_bad_alloc.obj
 0002:000e4610       $unwind$__acrt_freeptd     0000000180107610     libucrt:per_thread_data.obj
 0002:000e4610       $unwind$__acrt_uninitialize_winapi_thunks 0000000180107610     libucrt:winapi_thunks.obj
 0002:000e4610       $unwind$__acrt_uninitialize_stdio 0000000180107610     libucrt:_file.obj
 0002:000e4610       $unwind$__acrt_update_multibyte_info 0000000180107610     libucrt:locale_update.obj
 0002:000e4610       $unwind$__acrt_stdio_free_buffer_nolock 0000000180107610     libucrt:_freebuf.obj
 0002:000e4610       $unwind$_onexit            0000000180107610     LIBCMT:utility.obj
 0002:000e4610       $unwind$initialize_pointers 0000000180107610     libucrt:initialization.obj
 0002:000e4610       $unwind$_malloc_base       0000000180107610     libucrt:malloc_base.obj
 0002:000e4610       $unwind$euc_jisx0213_mbtowc 0000000180107610     iconv.obj
 0002:000e4610       $unwind$??0bad_alloc@std@@QEAA@AEBV01@@Z 0000000180107610     LIBCMT:throw_bad_alloc.obj
 0002:000e4610       $unwind$__scrt_release_startup_lock 0000000180107610     LIBCMT:utility.obj
 0002:000e4610       $unwind$?WeakCallback@Iconv@?A0x9d7288fc@@SAXAEBV?$WeakCallbackInfo@UIconv@?A0x9d7288fc@@@Nan@@@Z 0000000180107610     binding.obj
 0002:000e4610       $unwind$_calloc_base       0000000180107610     libucrt:calloc_base.obj
 0002:000e4610       $unwind$_clrfp             0000000180107610     libucrt:fpctrl.obj
 0002:000e4610       $unwind$__std_exception_destroy 0000000180107610     libvcruntime:std_exception.obj
 0002:000e4610       $unwind$__acrt_update_locale_info 0000000180107610     libucrt:locale_update.obj
 0002:000e4610       $unwind$__std_type_info_destroy_list 0000000180107610     libvcruntime:std_type_info.obj
 0002:000e4610       $unwind$?exit_or_terminate_process@@YAXI@Z 0000000180107610     libucrt:exit.obj
 0002:000e4610       $unwind$__acrt_allocate_buffer_for_argv 0000000180107610     libucrt:argv_parsing.obj
 0002:000e4610       $unwind$__acrt_uninitialize_locks 0000000180107610     libucrt:locks.obj
 0002:000e4610       $unwind$__acrt_initialize_locks 0000000180107610     libucrt:locks.obj
 0002:000e4610       $unwind$__raise_securityfailure 0000000180107610     LIBCMT:gs_report.obj
 0002:000e4610       $unwind$__vcrt_freeptd     0000000180107610     libvcruntime:per_thread_data.obj
 0002:000e4610       $unwind$euc_jp_mbtowc      0000000180107610     iconv.obj
 0002:000e4610       $unwind$strcpy_s           0000000180107610     libucrt:strcpy_s.obj
 0002:000e4610       $unwind$?load_exe_hook@@YAP6A_JXZIPEAUDelayLoadInfo@@@Z 0000000180107610     win_delay_load_hook.obj
 0002:000e4610       $unwind$??$invokeparameter@$0A@@?$WeakCallbackInfo@UIconv@?A0x9d7288fc@@@Nan@@CAXAEBV?$WeakCallbackInfo@V?$WeakCallbackInfo@UIconv@?A0x9d7288fc@@@Nan@@@v8@@@Z 0000000180107610     binding.obj
 0002:000e4610       $unwind$??0exception@std@@QEAA@AEBV01@@Z 0000000180107610     LIBCMT:throw_bad_alloc.obj
 0002:000e4610       $unwind$__vcrt_initialize_locks 0000000180107610     libvcruntime:locks.obj
 0002:000e4610       $unwind$__vcrt_uninitialize_locks 0000000180107610     libvcruntime:locks.obj
 0002:000e4618       $unwind$?Initialize@Iconv@?A0x9d7288fc@@SAXV?$Local@VObject@v8@@@v8@@@Z 0000000180107618     binding.obj
 0002:000e4624       $unwind$?Make@Iconv@?A0x9d7288fc@@SAXAEBV?$FunctionCallbackInfo@VValue@v8@@@Nan@@@Z 0000000180107624     binding.obj
 0002:000e4630       $chain$0$?Make@Iconv@?A0x9d7288fc@@SAXAEBV?$FunctionCallbackInfo@VValue@v8@@@Nan@@@Z 0000000180107630     binding.obj
 0002:000e4644       $chain$1$?Make@Iconv@?A0x9d7288fc@@SAXAEBV?$FunctionCallbackInfo@VValue@v8@@@Nan@@@Z 0000000180107644     binding.obj
 0002:000e4654       $unwind$?Convert@Iconv@?A0x9d7288fc@@SAXAEBV?$FunctionCallbackInfo@VValue@v8@@@Nan@@@Z 0000000180107654     binding.obj
 0002:000e466c       $unwind$??$invokeparameter@$00@?$WeakCallbackInfo@UIconv@?A0x9d7288fc@@@Nan@@CAXAEBV?$WeakCallbackInfo@V?$WeakCallbackInfo@UIconv@?A0x9d7288fc@@@Nan@@@v8@@@Z 000000018010766c     binding.obj
 0002:000e466c       $unwind$strncpy_s          000000018010766c     libucrt:strncpy_s.obj
 0002:000e466c       $unwind$__acrt_errno_map_os_error 000000018010766c     libucrt:errno.obj
 0002:000e466c       $unwind$_close_nolock      000000018010766c     libucrt:close.obj
 0002:000e466c       $unwind$__acrt_FlsFree     000000018010766c     libucrt:winapi_thunks.obj
 0002:000e466c       $unwind$??$common_initialize_environment_nolock@D@@YAHXZ 000000018010766c     libucrt:environment_initialization.obj
 0002:000e466c       $unwind$??0_LocaleUpdate@@QEAA@QEAU__crt_locale_pointers@@@Z 000000018010766c     libucrt:stricmp.obj
 0002:000e466c       $unwind$?try_cor_exit_process@@YAXI@Z 000000018010766c     libucrt:exit.obj
 0002:000e466c       $unwind$?internal_isupper_l@@YA_NHQEAU__crt_locale_pointers@@@Z 000000018010766c     libucrt:tolower_toupper.obj
 0002:000e466c       $unwind$__acrt_uninitialize_lowio 000000018010766c     libucrt:ioinit.obj
 0002:000e466c       $unwind$tcvn_mbtowc        000000018010766c     iconv.obj
 0002:000e466c       $unwind$__acrt_FlsGetValue 000000018010766c     libucrt:winapi_thunks.obj
 0002:000e466c       $unwind$euc_tw_wctomb      000000018010766c     iconv.obj
 0002:000e466c       $unwind$?replace_current_thread_locale_nolock@@YAXQEAU__acrt_ptd@@QEAU__crt_locale_data@@@Z 000000018010766c     libucrt:per_thread_data.obj
 0002:000e466c       $unwind$ces_big5_wctomb    000000018010766c     iconv.obj
 0002:000e466c       $unwind$_callnewh          000000018010766c     libucrt:new_handler.obj
 0002:000e466c       $unwind$dec_hanyu_wctomb   000000018010766c     iconv.obj
 0002:000e466c       $unwind$?DloadGetSRWLockFunctionPointers@@YAEXZ 000000018010766c     DelayImp:delayhlp.obj
 0002:000e466c       $unwind$_fclose_nolock     000000018010766c     libucrt:fclose.obj
 0002:000e466c       $unwind$dec_kanji_wctomb   000000018010766c     iconv.obj
 0002:000e466c       $unwind$??_Gbad_array_new_length@std@@UEAAPEAXI@Z 000000018010766c     LIBCMT:throw_bad_alloc.obj
 0002:000e466c       $unwind$_realloc_base      000000018010766c     libucrt:realloc_base.obj
 0002:000e466c       $unwind$??_Gbad_alloc@std@@UEAAPEAXI@Z 000000018010766c     LIBCMT:throw_bad_alloc.obj
 0002:000e466c       $unwind$__acrt_getptd      000000018010766c     libucrt:per_thread_data.obj
 0002:000e466c       $unwind$cp1258_mbtowc      000000018010766c     iconv.obj
 0002:000e466c       $unwind$?DloadAcquireSectionWriteAccess@@YAXXZ 000000018010766c     DelayImp:delayhlp.obj
 0002:000e466c       $unwind$euc_cn_wctomb      000000018010766c     iconv.obj
 0002:000e466c       $unwind$big5_2003_wctomb   000000018010766c     iconv.obj
 0002:000e466c       $unwind$_updatetlocinfoEx_nolock 000000018010766c     libucrt:locale_refcounting.obj
 0002:000e466c       $unwind$??_Gexception@std@@UEAAPEAXI@Z 000000018010766c     LIBCMT:throw_bad_alloc.obj
 0002:000e466c       $unwind$__vcrt_FlsAlloc    000000018010766c     libvcruntime:winapi_downlevel.obj
 0002:000e466c       $unwind$__acrt_FlsAlloc    000000018010766c     libucrt:winapi_thunks.obj
 0002:000e466c       $unwind$__acrt_invoke_user_matherr 000000018010766c     libucrt:matherr.obj
 0002:000e466c       $unwind$euc_kr_wctomb      000000018010766c     iconv.obj
 0002:000e466c       $unwind$__vcrt_FlsGetValue 000000018010766c     libvcruntime:winapi_downlevel.obj
 0002:000e466c       $unwind$__vcrt_FlsFree     000000018010766c     libvcruntime:winapi_downlevel.obj
 0002:000e466c       $unwind$uc_to_mb_write_replacement 000000018010766c     iconv.obj
 0002:000e4678       $unwind$johab_hangul_mbtowc 0000000180107678     iconv.obj
 0002:000e4678       $unwind$cp1258_wctomb      0000000180107678     iconv.obj
 0002:000e4678       $unwind$cp1255_wctomb      0000000180107678     iconv.obj
 0002:000e4678       $unwind$jisx0208_wctomb    0000000180107678     iconv.obj
 0002:000e4678       $unwind$utf8_mbtowc        0000000180107678     iconv.obj
 0002:000e4680       $chain$0$utf8_mbtowc       0000000180107680     iconv.obj
 0002:000e4694       $chain$2$utf8_mbtowc       0000000180107694     iconv.obj
 0002:000e46a8       $unwind$gbkext_inv_wctomb  00000001801076a8     iconv.obj
 0002:000e46a8       $unwind$hkscs2004_wctomb   00000001801076a8     iconv.obj
 0002:000e46a8       $unwind$tcvn_wctomb        00000001801076a8     iconv.obj
 0002:000e46a8       $unwind$hkscs2008_wctomb   00000001801076a8     iconv.obj
 0002:000e46a8       $unwind$hkscs2001_wctomb   00000001801076a8     iconv.obj
 0002:000e46a8       $unwind$c99_mbtowc         00000001801076a8     iconv.obj
 0002:000e46a8       $unwind$ucs2_mbtowc        00000001801076a8     iconv.obj
 0002:000e46a8       $unwind$utf32_mbtowc       00000001801076a8     iconv.obj
 0002:000e46a8       $unwind$ucs4_mbtowc        00000001801076a8     iconv.obj
 0002:000e46a8       $unwind$cp950ext_wctomb    00000001801076a8     iconv.obj
 0002:000e46b0       $unwind$cp1255_mbtowc      00000001801076b0     iconv.obj
 0002:000e46b0       $unwind$gbk_mbtowc         00000001801076b0     iconv.obj
 0002:000e46b0       $unwind$utf16_mbtowc       00000001801076b0     iconv.obj
 0002:000e46bc       $unwind$?try_get_function@@YAPEAXW4function_id@?A0x63058377@@QEBDQEBW4module_id@2@2@Z 00000001801076bc     libucrt:winapi_thunks.obj
 0002:000e46bc       $unwind$utf7_mbtowc        00000001801076bc     iconv.obj
 0002:000e46bc       $unwind$?try_get_function@@YAPEAXW4function_id@?A0x679b24ab@@QEBDQEBW4module_id@2@2@Z 00000001801076bc     libvcruntime:winapi_downlevel.obj
 0002:000e46d8       $unwind$gb18030_wctomb     00000001801076d8     iconv.obj
 0002:000e46d8       $unwind$__acrt_execute_uninitializers 00000001801076d8     libucrt:shared_initialization.obj
 0002:000e46d8       $unwind$isoir165_mbtowc    00000001801076d8     iconv.obj
 0002:000e46d8       $unwind$__acrt_FlsSetValue 00000001801076d8     libucrt:winapi_thunks.obj
 0002:000e46d8       $unwind$??$common_lseek_nolock@_J@@YA_JH_JH@Z 00000001801076d8     libucrt:lseek.obj
 0002:000e46d8       $unwind$_exception_enabled 00000001801076d8     libucrt:libm_error.obj
 0002:000e46d8       $unwind$cp936_mbtowc       00000001801076d8     iconv.obj
 0002:000e46d8       $unwind$__vcrt_getptd_noexit 00000001801076d8     libvcruntime:per_thread_data.obj
 0002:000e46d8       $unwind$?free_crt_array_internal@@YAXQEAPEBX_K@Z 00000001801076d8     libucrt:inittime.obj
 0002:000e46d8       $unwind$ces_gbk_wctomb     00000001801076d8     iconv.obj
 0002:000e46d8       $unwind$gb18030_mbtowc     00000001801076d8     iconv.obj
 0002:000e46d8       $unwind$_DllMainCRTStartup 00000001801076d8     LIBCMT:dll_dllmain.obj
 0002:000e46d8       $unwind$_RTC_Initialize    00000001801076d8     LIBCMT:_initsect_.obj
 0002:000e46d8       $unwind$__acrt_stdio_flush_nolock 00000001801076d8     libucrt:fflush.obj
 0002:000e46d8       $unwind$_RTC_Terminate     00000001801076d8     LIBCMT:_initsect_.obj
 0002:000e46d8       $unwind$_initterm_e        00000001801076d8     libucrt:initterm.obj
 0002:000e46d8       $unwind$__acrt_getptd_noexit 00000001801076d8     libucrt:per_thread_data.obj
 0002:000e46d8       $unwind$__vcrt_FlsSetValue 00000001801076d8     libvcruntime:winapi_downlevel.obj
 0002:000e46d8       $unwind$__acrt_LocaleNameToLCID 00000001801076d8     libucrt:winapi_thunks.obj
 0002:000e46d8       $unwind$??R<lambda_ad1ced32f4ac17aa236e5ef05d6b3b7c>@@QEBAXXZ 00000001801076d8     libucrt:mbctype.obj
 0002:000e46d8       $unwind$gbk_wctomb         00000001801076d8     iconv.obj
 0002:000e46d8       $unwind$cp950_wctomb       00000001801076d8     iconv.obj
 0002:000e46d8       $unwind$cp936_wctomb       00000001801076d8     iconv.obj
 0002:000e46d8       $unwind$sjis_wctomb        00000001801076d8     iconv.obj
 0002:000e46d8       $unwind$cp932_wctomb       00000001801076d8     iconv.obj
 0002:000e46d8       $unwind$johab_wctomb       00000001801076d8     iconv.obj
 0002:000e46d8       $unwind$cp949_wctomb       00000001801076d8     iconv.obj
 0002:000e46d8       $unwind$utf7_wctomb        00000001801076d8     iconv.obj
 0002:000e46e8       $unwind$__vcrt_initialize  00000001801076e8     libvcruntime:initialization.obj
 0002:000e46e8       $unwind$__acrt_initialize_ptd 00000001801076e8     libucrt:per_thread_data.obj
 0002:000e46e8       $unwind$johab_mbtowc       00000001801076e8     iconv.obj
 0002:000e46e8       $unwind$__pctype_func      00000001801076e8     libucrt:ctype.obj
 0002:000e46e8       $unwind$utf7_reset         00000001801076e8     iconv.obj
 0002:000e46e8       $unwind$iso2022_jp3_reset  00000001801076e8     iconv.obj
 0002:000e46e8       $unwind$__acrt_DownlevelLocaleNameToLCID 00000001801076e8     libucrt:lcidtoname_downlevel.obj
 0002:000e46e8       $unwind$__acrt_initialize_multibyte 00000001801076e8     libucrt:mbctype.obj
 0002:000e46e8       $unwind$__vcrt_uninitialize 00000001801076e8     libvcruntime:initialization.obj
 0002:000e46e8       $unwind$__vcrt_uninitialize_critical 00000001801076e8     libvcruntime:initialization.obj
 0002:000e46e8       $unwind$_statfp            00000001801076e8     libucrt:fpctrl.obj
 0002:000e46e8       $unwind$??$uninitialize_environment_internal@D@@YAXAEAPEAPEAD@Z 00000001801076e8     libucrt:environment_initialization.obj
 0002:000e46e8       $unwind$_fileno            00000001801076e8     libucrt:fileno.obj
 0002:000e46e8       $unwind$__acrt_uninitialize_ptd 00000001801076e8     libucrt:per_thread_data.obj
 0002:000e46e8       $unwind$__vcrt_thread_attach 00000001801076e8     libvcruntime:initialization.obj
 0002:000e46e8       $unwind$__dcrt_uninitialize_environments_nolock 00000001801076e8     libucrt:environment_initialization.obj
 0002:000e46e8       $unwind$__scrt_dllmain_crt_thread_attach 00000001801076e8     LIBCMT:utility.obj
 0002:000e46e8       $unwind$__dcrt_terminate_console_output 00000001801076e8     libucrt:initcon.obj
 0002:000e46e8       $unwind$__scrt_dllmain_uninitialize_critical 00000001801076e8     LIBCMT:utility.obj
 0002:000e46e8       $unwind$__acrt_uninitialize_critical 00000001801076e8     libucrt:initialization.obj
 0002:000e46e8       $unwind$__GSHandlerCheck   00000001801076e8     LIBCMT:_gshandler_.obj
 0002:000e46e8       $unwind$__vcrt_freefls     00000001801076e8     libvcruntime:per_thread_data.obj
 0002:000e46e8       $unwind$__vcrt_thread_detach 00000001801076e8     libvcruntime:initialization.obj
 0002:000e46e8       $unwind$__scrt_dllmain_uninitialize_c 00000001801076e8     LIBCMT:utility.obj
 0002:000e46e8       $unwind$__scrt_initialize_default_local_stdio_options 00000001801076e8     LIBCMT:default_local_stdio_options.obj
 0002:000e46e8       $unwind$_stricmp           00000001801076e8     libucrt:stricmp.obj
 0002:000e46e8       $unwind$__scrt_dllmain_after_initialize_c 00000001801076e8     LIBCMT:utility.obj
 0002:000e46e8       $unwind$_invoke_watson     00000001801076e8     libucrt:invalid_parameter.obj
 0002:000e46e8       $unwind$__report_rangecheckfailure 00000001801076e8     LIBCMT:gs_report.obj
 0002:000e46e8       $unwind$__acrt_thread_attach 00000001801076e8     libucrt:initialization.obj
 0002:000e46e8       $unwind$__vcrt_initialize_ptd 00000001801076e8     libvcruntime:per_thread_data.obj
 0002:000e46e8       $unwind$?dllmain_crt_dispatch@@YAHQEAUHINSTANCE__@@KQEAX@Z 00000001801076e8     LIBCMT:dll_dllmain.obj
 0002:000e46e8       $unwind$__acrt_thread_detach 00000001801076e8     libucrt:initialization.obj
 0002:000e46e8       $unwind$__scrt_dllmain_before_initialize_c 00000001801076e8     LIBCMT:utility.obj
 0002:000e46e8       $unwind$initialize_c       00000001801076e8     libucrt:initialization.obj
 0002:000e46e8       $unwind$_set_errno_from_matherr 00000001801076e8     libucrt:fpexcept.obj
 0002:000e46e8       $unwind$uninitialize_environment 00000001801076e8     libucrt:initialization.obj
 0002:000e46e8       $unwind$__vcrt_uninitialize_ptd 00000001801076e8     libvcruntime:per_thread_data.obj
 0002:000e46e8       $unwind$??$uninitialize_environment_internal@_W@@YAXAEAPEAPEA_W@Z 00000001801076e8     libucrt:environment_initialization.obj
 0002:000e46e8       $unwind$__doserrno         00000001801076e8     libucrt:errno.obj
 0002:000e46e8       $unwind$_isatty            00000001801076e8     libucrt:isatty.obj
 0002:000e46e8       $unwind$shift_jisx0213_mbtowc 00000001801076e8     iconv.obj
 0002:000e46e8       $unwind$abort              00000001801076e8     libucrt:abort.obj
 0002:000e46e8       $unwind$?initialize_multibyte@@YAHXZ 00000001801076e8     libucrt:multibyte_initializer.obj
 0002:000e46e8       $unwind$_errno             00000001801076e8     libucrt:errno.obj
 0002:000e46e8       $unwind$euc_tw_mbtowc      00000001801076e8     iconv.obj
 0002:000e46e8       $unwind$__scrt_acquire_startup_lock 00000001801076e8     LIBCMT:utility.obj
 0002:000e46e8       $unwind$__acrt_release_locale_ref 00000001801076e8     libucrt:locale_refcounting.obj
 0002:000e46e8       $unwind$euc_kr_mbtowc      00000001801076e8     iconv.obj
 0002:000e46e8       $unwind$__acrt_initialize_heap 00000001801076e8     libucrt:heap_handle.obj
 0002:000e46e8       $unwind$__acrt_initialize_command_line 00000001801076e8     libucrt:argv_data.obj
 0002:000e46e8       $unwind$_get_osfhandle     00000001801076e8     libucrt:osfinfo.obj
 0002:000e46e8       $unwind$atexit             00000001801076e8     LIBCMT:utility.obj
 0002:000e46e8       $unwind$__scrt_dllmain_crt_thread_detach 00000001801076e8     LIBCMT:utility.obj
 0002:000e46e8       $unwind$dec_hanyu_mbtowc   00000001801076e8     iconv.obj
 0002:000e46e8       $unwind$_msize             00000001801076e8     libucrt:msize.obj
 0002:000e46f0       $unwind$java_mbtowc        00000001801076f0     iconv.obj
 0002:000e46f8       $chain$1$java_mbtowc       00000001801076f8     iconv.obj
 0002:000e4710       $chain$5$java_mbtowc       0000000180107710     iconv.obj
 0002:000e4710       $chain$3$java_mbtowc       0000000180107710     iconv.obj
 0002:000e4710       $chain$7$java_mbtowc       0000000180107710     iconv.obj
 0002:000e4728       $chain$0$cp1255_wctomb     0000000180107728     iconv.obj
 0002:000e473c       $chain$4$cp1255_wctomb     000000018010773c     iconv.obj
 0002:000e473c       $chain$10$cp1255_wctomb    000000018010773c     iconv.obj
 0002:000e473c       $chain$14$cp1255_wctomb    000000018010773c     iconv.obj
 0002:000e473c       $chain$2$cp1255_wctomb     000000018010773c     iconv.obj
 0002:000e473c       $chain$6$cp1255_wctomb     000000018010773c     iconv.obj
 0002:000e473c       $chain$8$cp1255_wctomb     000000018010773c     iconv.obj
 0002:000e473c       $chain$12$cp1255_wctomb    000000018010773c     iconv.obj
 0002:000e4750       $chain$0$cp1258_wctomb     0000000180107750     iconv.obj
 0002:000e4764       $chain$8$cp1258_wctomb     0000000180107764     iconv.obj
 0002:000e4764       $chain$10$cp1258_wctomb    0000000180107764     iconv.obj
 0002:000e4764       $chain$6$cp1258_wctomb     0000000180107764     iconv.obj
 0002:000e4764       $chain$4$cp1258_wctomb     0000000180107764     iconv.obj
 0002:000e4764       $chain$2$cp1258_wctomb     0000000180107764     iconv.obj
 0002:000e4778       $chain$0$jisx0208_wctomb   0000000180107778     iconv.obj
 0002:000e478c       $chain$2$jisx0208_wctomb   000000018010778c     iconv.obj
 0002:000e47a0       $chain$3$jisx0208_wctomb   00000001801077a0     iconv.obj
 0002:000e47b0       $unwind$isoir165_wctomb    00000001801077b0     iconv.obj
 0002:000e47c0       $chain$0$johab_hangul_mbtowc 00000001801077c0     iconv.obj
 0002:000e47d4       $chain$4$johab_hangul_mbtowc 00000001801077d4     iconv.obj
 0002:000e47d4       $chain$2$johab_hangul_mbtowc 00000001801077d4     iconv.obj
 0002:000e47e8       $chain$5$johab_hangul_mbtowc 00000001801077e8     iconv.obj
 0002:000e47f8       $unwind$_free_base         00000001801077f8     libucrt:free_base.obj
 0002:000e47f8       $unwind$__acrt_locale_free_numeric 00000001801077f8     libucrt:initnum.obj
 0002:000e47f8       $unwind$?destroy_fls@@YAXPEAX@Z 00000001801077f8     libucrt:per_thread_data.obj
 0002:000e47f8       $unwind$johab_hangul_decompose 00000001801077f8     iconv.obj
 0002:000e47f8       $unwind$__acrt_locale_free_lc_time_if_unreferenced 00000001801077f8     libucrt:locale_refcounting.obj
 0002:000e4800       $unwind$euc_jp_wctomb      0000000180107800     iconv.obj
 0002:000e4814       $unwind$__acrt_execute_initializers 0000000180107814     libucrt:shared_initialization.obj
 0002:000e4814       $unwind$?setSBCS@@YAXPEAU__crt_multibyte_data@@@Z 0000000180107814     libucrt:mbctype.obj
 0002:000e4814       $unwind$_seh_filter_exe    0000000180107814     libucrt:exception_filter.obj
 0002:000e4814       $unwind$big5hkscs2008_mbtowc 0000000180107814     iconv.obj
 0002:000e4814       $unwind$?dllmain_raw@@YAHQEAUHINSTANCE__@@KQEAX@Z 0000000180107814     LIBCMT:dll_dllmain.obj
 0002:000e4814       $unwind$__scrt_dllmain_exception_filter 0000000180107814     LIBCMT:utility.obj
 0002:000e4814       $unwind$_recalloc_base     0000000180107814     libucrt:recalloc.obj
 0002:000e4814       $unwind$big5hkscs2001_mbtowc 0000000180107814     iconv.obj
 0002:000e4814       $unwind$iso2022_jp_mbtowc  0000000180107814     iconv.obj
 0002:000e4814       $unwind$shift_jisx0213_wctomb 0000000180107814     iconv.obj
 0002:000e4814       $unwind$euc_jisx0213_wctomb 0000000180107814     iconv.obj
 0002:000e4814       $unwind$big5hkscs1999_mbtowc 0000000180107814     iconv.obj
 0002:000e4814       $unwind$__acrt_lowio_create_handle_array 0000000180107814     libucrt:osfinfo.obj
 0002:000e4814       $unwind$big5hkscs2004_mbtowc 0000000180107814     iconv.obj
 0002:000e4814       $unwind$?expand_if_necessary@?$argument_list@D@?A0xca0879c4@@AEAAHXZ 0000000180107814     libucrt:argv_wildcards.obj
 0002:000e4814       $unwind$__vcrt_InitializeCriticalSectionEx 0000000180107814     libvcruntime:winapi_downlevel.obj
 0002:000e4814       $unwind$__acrt_free_locale 0000000180107814     libucrt:locale_refcounting.obj
 0002:000e4814       $unwind$__acrt_InitializeCriticalSectionEx 0000000180107814     libucrt:winapi_thunks.obj
 0002:000e4828       $unwind$hz_wctomb          0000000180107828     iconv.obj
 0002:000e4828       $unwind$iso2022_jp_wctomb  0000000180107828     iconv.obj
 0002:000e4838       $chain$0$iso2022_jp_wctomb 0000000180107838     iconv.obj
 0002:000e484c       $chain$2$iso2022_jp_wctomb 000000018010784c     iconv.obj
 0002:000e4860       $unwind$iso2022_jp1_mbtowc 0000000180107860     iconv.obj
 0002:000e4878       $unwind$iso2022_jp1_wctomb 0000000180107878     iconv.obj
 0002:000e488c       $chain$0$iso2022_jp1_wctomb 000000018010788c     iconv.obj
 0002:000e48a0       $chain$1$iso2022_jp1_wctomb 00000001801078a0     iconv.obj
 0002:000e48b0       $chain$2$iso2022_jp1_wctomb 00000001801078b0     iconv.obj
 0002:000e48c4       $unwind$iso2022_jp2_mbtowc 00000001801078c4     iconv.obj
 0002:000e48dc       $unwind$iso2022_jp2_wctomb 00000001801078dc     iconv.obj
 0002:000e48f0       $chain$0$iso2022_jp2_wctomb 00000001801078f0     iconv.obj
 0002:000e4904       $chain$2$iso2022_jp2_wctomb 0000000180107904     iconv.obj
 0002:000e4918       $unwind$gb18030uni_wctomb  0000000180107918     iconv.obj
 0002:000e4918       $unwind$gb18030uni_mbtowc  0000000180107918     iconv.obj
 0002:000e4918       $unwind$__GSHandlerCheckCommon 0000000180107918     LIBCMT:_gshandler_.obj
 0002:000e4920       $chain$0$gb18030uni_mbtowc 0000000180107920     iconv.obj
 0002:000e4934       $chain$2$gb18030uni_mbtowc 0000000180107934     iconv.obj
 0002:000e4948       $chain$3$gb18030uni_mbtowc 0000000180107948     iconv.obj
 0002:000e4958       $chain$0$gb18030uni_wctomb 0000000180107958     iconv.obj
 0002:000e496c       $chain$2$gb18030uni_wctomb 000000018010796c     iconv.obj
 0002:000e4980       $chain$3$gb18030uni_wctomb 0000000180107980     iconv.obj
 0002:000e4990       $unwind$iso2022_cn_mbtowc  0000000180107990     iconv.obj
 0002:000e49a8       $unwind$iso2022_cn_wctomb  00000001801079a8     iconv.obj
 0002:000e49c0       $unwind$iso2022_cn_ext_mbtowc 00000001801079c0     iconv.obj
 0002:000e49dc       $unwind$iso2022_cn_ext_wctomb 00000001801079dc     iconv.obj
 0002:000e49f4       $unwind$hz_mbtowc          00000001801079f4     iconv.obj
 0002:000e4a08       $chain$0$hz_wctomb         0000000180107a08     iconv.obj
 0002:000e4a1c       $chain$2$hz_wctomb         0000000180107a1c     iconv.obj
 0002:000e4a30       $unwind$cp950_mbtowc       0000000180107a30     iconv.obj
 0002:000e4a3c       $chain$3$cp950_mbtowc      0000000180107a3c     iconv.obj
 0002:000e4a5c       $chain$5$cp950_mbtowc      0000000180107a5c     iconv.obj
 0002:000e4a7c       $unwind$big5hkscs2001_wctomb 0000000180107a7c     iconv.obj
 0002:000e4a7c       $unwind$big5hkscs2004_wctomb 0000000180107a7c     iconv.obj
 0002:000e4a7c       $unwind$big5hkscs2008_wctomb 0000000180107a7c     iconv.obj
 0002:000e4a7c       $unwind$big5hkscs1999_wctomb 0000000180107a7c     iconv.obj
 0002:000e4a94       $unwind$cp949_mbtowc       0000000180107a94     iconv.obj
 0002:000e4aa0       $chain$0$cp949_mbtowc      0000000180107aa0     iconv.obj
 0002:000e4ab4       $chain$2$cp949_mbtowc      0000000180107ab4     iconv.obj
 0002:000e4ab4       $chain$4$cp949_mbtowc      0000000180107ab4     iconv.obj
 0002:000e4ab4       $chain$6$cp949_mbtowc      0000000180107ab4     iconv.obj
 0002:000e4ab4       $chain$8$cp949_mbtowc      0000000180107ab4     iconv.obj
 0002:000e4ac8       $unwind$iso2022_kr_mbtowc  0000000180107ac8     iconv.obj
 0002:000e4ae0       $unwind$iso2022_kr_wctomb  0000000180107ae0     iconv.obj
 0002:000e4af4       $unwind$iso2022_jp3_mbtowc 0000000180107af4     iconv.obj
 0002:000e4b04       $chain$1$iso2022_jp3_mbtowc 0000000180107b04     iconv.obj
 0002:000e4b1c       $chain$3$iso2022_jp3_mbtowc 0000000180107b1c     iconv.obj
 0002:000e4b34       $unwind$iso2022_jp3_wctomb 0000000180107b34     iconv.obj
 0002:000e4b4c       $chain$0$iso2022_jp3_wctomb 0000000180107b4c     iconv.obj
 0002:000e4b60       $chain$1$iso2022_jp3_wctomb 0000000180107b60     iconv.obj
 0002:000e4b70       $chain$2$iso2022_jp3_wctomb 0000000180107b70     iconv.obj
 0002:000e4b84       $chain$1$big5_2003_mbtowc  0000000180107b84     iconv.obj
 0002:000e4b9c       $chain$19$big5_2003_mbtowc 0000000180107b9c     iconv.obj
 0002:000e4b9c       $chain$21$big5_2003_mbtowc 0000000180107b9c     iconv.obj
 0002:000e4b9c       $chain$15$big5_2003_mbtowc 0000000180107b9c     iconv.obj
 0002:000e4b9c       $chain$13$big5_2003_mbtowc 0000000180107b9c     iconv.obj
 0002:000e4b9c       $chain$25$big5_2003_mbtowc 0000000180107b9c     iconv.obj
 0002:000e4b9c       $chain$3$big5_2003_mbtowc  0000000180107b9c     iconv.obj
 0002:000e4b9c       $chain$17$big5_2003_mbtowc 0000000180107b9c     iconv.obj
 0002:000e4b9c       $chain$7$big5_2003_mbtowc  0000000180107b9c     iconv.obj
 0002:000e4b9c       $chain$9$big5_2003_mbtowc  0000000180107b9c     iconv.obj
 0002:000e4b9c       $chain$23$big5_2003_mbtowc 0000000180107b9c     iconv.obj
 0002:000e4b9c       $chain$5$big5_2003_mbtowc  0000000180107b9c     iconv.obj
 0002:000e4b9c       $chain$11$big5_2003_mbtowc 0000000180107b9c     iconv.obj
 0002:000e4bb4       $unwind$unicode_transliterate 0000000180107bb4     iconv.obj
 0002:000e4bcc       $unwind$mb_to_uc_write_replacement 0000000180107bcc     iconv.obj
 0002:000e4bd8       $chain$4$mb_to_uc_write_replacement 0000000180107bd8     iconv.obj
 0002:000e4bfc       $chain$5$mb_to_uc_write_replacement 0000000180107bfc     iconv.obj
 0002:000e4c0c       $chain$6$mb_to_uc_write_replacement 0000000180107c0c     iconv.obj
 0002:000e4c30       $unwind$unicode_loop_convert 0000000180107c30     iconv.obj
 0002:000e4c48       $unwind$unicode_loop_reset 0000000180107c48     iconv.obj
 0002:000e4c54       $chain$4$unicode_loop_reset 0000000180107c54     iconv.obj
 0002:000e4c78       $chain$6$unicode_loop_reset 0000000180107c78     iconv.obj
 0002:000e4c78       $chain$8$unicode_loop_reset 0000000180107c78     iconv.obj
 0002:000e4c9c       $chain$7$unicode_loop_reset 0000000180107c9c     iconv.obj
 0002:000e4cac       $unwind$libiconv_open      0000000180107cac     iconv.obj
 0002:000e4cd8       xdata                      0000000180107cd8     node:node.exe
 0002:000e4ce0       $xdatasym                  0000000180107ce0     LIBCMT:_amdsecgs_.obj
 0002:000e4ce4       $unwind$__scrt_is_nonwritable_in_current_image 0000000180107ce4     LIBCMT:utility.obj
 0002:000e4d04       $unwind$__scrt_is_nonwritable_in_current_image$filt$0 0000000180107d04     LIBCMT:utility.obj
 0002:000e4d0c       $unwind$__scrt_initialize_onexit_tables 0000000180107d0c     LIBCMT:utility.obj
 0002:000e4d18       $unwind$?dllmain_crt_process_attach@@YAHQEAUHINSTANCE__@@QEAX@Z 0000000180107d18     LIBCMT:dll_dllmain.obj
 0002:000e4d44       $unwind$?dllmain_crt_process_detach@@YAH_N@Z 0000000180107d44     LIBCMT:dll_dllmain.obj
 0002:000e4d6c       $unwind$?dllmain_dispatch@@YAHQEAUHINSTANCE__@@KQEAX@Z 0000000180107d6c     LIBCMT:dll_dllmain.obj
 0002:000e4d94       $unwind$?filt$0@?0??dllmain_dispatch@@YAHQEAUHINSTANCE__@@KQEAX@Z@4HA 0000000180107d94     LIBCMT:dll_dllmain.obj
 0002:000e4d9c       $unwind$__report_securityfailure 0000000180107d9c     LIBCMT:gs_report.obj
 0002:000e4da4       $unwind$capture_current_context 0000000180107da4     LIBCMT:gs_report.obj
 0002:000e4db0       $unwind$capture_previous_context 0000000180107db0     LIBCMT:gs_report.obj
 0002:000e4dbc       $unwind$__isa_available_init 0000000180107dbc     LIBCMT:_cpu_disp_.obj
 0002:000e4dcc       $unwind$__scrt_fastfail    0000000180107dcc     LIBCMT:utility_desktop.obj
 0002:000e4ddc       $unwind$__security_init_cookie 0000000180107ddc     LIBCMT:gs_support.obj
 0002:000e4de8       $xdatasym                  0000000180107de8     LIBCMT:_guard_dispatch_.obj
 0002:000e4dec       $unwind$__C_specific_handler 0000000180107dec     libvcruntime:_chandler_.obj
 0002:000e4e08       $unwind$_CxxThrowException 0000000180107e08     libvcruntime:throw.obj
 0002:000e4e20       $xdatasym                  0000000180107e20     libvcruntime:memset.obj
 0002:000e4e24       $unwind$__vcrt_uninitialize_winapi_thunks 0000000180107e24     libvcruntime:winapi_downlevel.obj
 0002:000e4e30       $xdatasym                  0000000180107e30     libvcruntime:_jmpuwind_.obj
 0002:000e4e44       $unwind$qsort              0000000180107e44     libucrt:qsort.obj
 0002:000e4e5c       $chain$4$qsort             0000000180107e5c     libucrt:qsort.obj
 0002:000e4e80       $chain$5$qsort             0000000180107e80     libucrt:qsort.obj
 0002:000e4e90       $unwind$?shortsort@@YAXPEAD0_KP6AHPEBX2@Z@Z 0000000180107e90     libucrt:qsort.obj
 0002:000e4ea0       $chain$2$?shortsort@@YAXPEAD0_KP6AHPEBX2@Z@Z 0000000180107ea0     libucrt:qsort.obj
 0002:000e4ebc       $chain$3$?shortsort@@YAXPEAD0_KP6AHPEBX2@Z@Z 0000000180107ebc     libucrt:qsort.obj
 0002:000e4ecc       $unwind$_query_new_handler 0000000180107ecc     libucrt:new_handler.obj
 0002:000e4eec       $unwind$?common_exit@@YAXHW4_crt_exit_cleanup_mode@@W4_crt_exit_return_mode@@@Z 0000000180107eec     libucrt:exit.obj
 0002:000e4f2c       $unwind$_configure_narrow_argv 0000000180107f2c     libucrt:argv_parsing.obj
 0002:000e4f40       $unwind$??$parse_command_line@D@@YAXPEADPEAPEAD0PEA_K2@Z 0000000180107f40     libucrt:argv_parsing.obj
 0002:000e4f40       $unwind$??R<lambda_4e60a939b0d047cfe11ddc22648dfba9>@@QEBAHXZ 0000000180107f40     libucrt:onexit.obj
 0002:000e4f5c       $unwind$??$free_environment@_W@@YAXQEAPEA_W@Z 0000000180107f5c     libucrt:environment_initialization.obj
 0002:000e4f5c       $unwind$??$free_environment@D@@YAXQEAPEAD@Z 0000000180107f5c     libucrt:environment_initialization.obj
 0002:000e4f68       $unwind$??$create_environment@D@@YAQEAPEADQEAD@Z 0000000180107f68     libucrt:environment_initialization.obj
 0002:000e4f80       $unwind$_register_onexit_function 0000000180107f80     libucrt:onexit.obj
 0002:000e4f88       $unwind$_execute_onexit_table 0000000180107f88     libucrt:onexit.obj
 0002:000e4f90       $unwind$??$?RV<lambda_b8c45f8f788dd370798f47cfe8ac3a86>@@AEAV<lambda_4e60a939b0d047cfe11ddc22648dfba9>@@V<lambda_332c3edc96d0294ec56c57d38c1cdfd5>@@@?$__crt_seh_guarded_call@H@@QEAAH$$QEAV<lambda_b8c45f8f788dd370798f47cfe8ac3a86>@@AEAV<lambda_4e60a939b0d047cfe11ddc22648dfba9>@@$$QEAV<lambda_332c3edc96d0294ec56c57d38c1cdfd5>@@@Z 0000000180107f90     libucrt:onexit.obj
 0002:000e4fb4       $unwind$??$?RV<lambda_e24bbb7b643b32fcea6fa61b31d4c984>@@AEAV<lambda_275893d493268fdec8709772e3fcec0e>@@V<lambda_9d71df4d7cf3f480f8d633942495c3b0>@@@?$__crt_seh_guarded_call@H@@QEAAH$$QEAV<lambda_e24bbb7b643b32fcea6fa61b31d4c984>@@AEAV<lambda_275893d493268fdec8709772e3fcec0e>@@$$QEAV<lambda_9d71df4d7cf3f480f8d633942495c3b0>@@@Z 0000000180107fb4     libucrt:onexit.obj
 0002:000e4fe4       $unwind$terminate          0000000180107fe4     libucrt:terminate.obj
 0002:000e5004       $unwind$__acrt_call_reportfault 0000000180108004     libucrt:invalid_parameter.obj
 0002:000e5024       $unwind$_invalid_parameter 0000000180108024     libucrt:invalid_parameter.obj
 0002:000e503c       $unwind$?construct_ptd_array@@YAXQEAU__acrt_ptd@@@Z 000000018010803c     libucrt:per_thread_data.obj
 0002:000e5044       $unwind$?destroy_ptd_array@@YAXQEAU__acrt_ptd@@@Z 0000000180108044     libucrt:per_thread_data.obj
 0002:000e504c       $unwind$??$?RV<lambda_72d1df2b273a38828b1ce30cbf4cdab5>@@AEAV<lambda_876a65b173b8412d3a47c70a915b0cf4>@@V<lambda_41932305e351933ebe8f8be3ed8bb5dc>@@@?$__crt_seh_guarded_call@X@@QEAAX$$QEAV<lambda_72d1df2b273a38828b1ce30cbf4cdab5>@@AEAV<lambda_876a65b173b8412d3a47c70a915b0cf4>@@$$QEAV<lambda_41932305e351933ebe8f8be3ed8bb5dc>@@@Z 000000018010804c     libucrt:per_thread_data.obj
 0002:000e5070       $unwind$??$?RV<lambda_5e887d1dcbef67a5eb4283622ba103bf>@@AEAV<lambda_4466841279450cc726390878d4a41900>@@V<lambda_341c25c0346d94847f1f3c463c57e077>@@@?$__crt_seh_guarded_call@X@@QEAAX$$QEAV<lambda_5e887d1dcbef67a5eb4283622ba103bf>@@AEAV<lambda_4466841279450cc726390878d4a41900>@@$$QEAV<lambda_341c25c0346d94847f1f3c463c57e077>@@@Z 0000000180108070     libucrt:per_thread_data.obj
 0002:000e5094       $unwind$??$?RV<lambda_46352004c1216016012b18bd6f87e700>@@AEAV<lambda_3bd07e1a1191394380780325891bf33f>@@V<lambda_334532d3f185bcaa59b5be82d7d22bff>@@@?$__crt_seh_guarded_call@X@@QEAAX$$QEAV<lambda_46352004c1216016012b18bd6f87e700>@@AEAV<lambda_3bd07e1a1191394380780325891bf33f>@@$$QEAV<lambda_334532d3f185bcaa59b5be82d7d22bff>@@@Z 0000000180108094     libucrt:per_thread_data.obj
 0002:000e50b8       $unwind$??$?RV<lambda_fb3a7dec4e47f37f22dae91bb15c9095>@@AEAV<lambda_698284760c8add0bfb0756c19673e34b>@@V<lambda_dfb8eca1e75fef3034a8fb18dd509707>@@@?$__crt_seh_guarded_call@X@@QEAAX$$QEAV<lambda_fb3a7dec4e47f37f22dae91bb15c9095>@@AEAV<lambda_698284760c8add0bfb0756c19673e34b>@@$$QEAV<lambda_dfb8eca1e75fef3034a8fb18dd509707>@@@Z 00000001801080b8     libucrt:per_thread_data.obj
 0002:000e50dc       $unwind$?fin$0@?0???$?RV<lambda_fb3a7dec4e47f37f22dae91bb15c9095>@@AEAV<lambda_698284760c8add0bfb0756c19673e34b>@@V<lambda_dfb8eca1e75fef3034a8fb18dd509707>@@@?$__crt_seh_guarded_call@X@@QEAAX$$QEAV<lambda_fb3a7dec4e47f37f22dae91bb15c9095>@@AEAV<lambda_698284760c8add0bfb0756c19673e34b>@@$$QEAV<lambda_dfb8eca1e75fef3034a8fb18dd509707>@@@Z@4HA 00000001801080dc     libucrt:per_thread_data.obj
 0002:000e50dc       $unwind$__acrt_update_thread_locale_data$fin$0 00000001801080dc     libucrt:locale_refcounting.obj
 0002:000e50dc       $unwind$?fin$1@?0??common_exit@@YAXHW4_crt_exit_cleanup_mode@@W4_crt_exit_return_mode@@@Z@4HA 00000001801080dc     libucrt:exit.obj
 0002:000e50dc       $unwind$__acrt_update_thread_multibyte_data$fin$0 00000001801080dc     libucrt:mbctype.obj
 0002:000e50dc       $unwind$_IsNonwritableInCurrentImage$filt$0 00000001801080dc     LIBCMT:pesect.obj
 0002:000e50dc       $unwind$?fin$0@?0???$?RV<lambda_46352004c1216016012b18bd6f87e700>@@AEAV<lambda_3bd07e1a1191394380780325891bf33f>@@V<lambda_334532d3f185bcaa59b5be82d7d22bff>@@@?$__crt_seh_guarded_call@X@@QEAAX$$QEAV<lambda_46352004c1216016012b18bd6f87e700>@@AEAV<lambda_3bd07e1a1191394380780325891bf33f>@@$$QEAV<lambda_334532d3f185bcaa59b5be82d7d22bff>@@@Z@4HA 00000001801080dc     libucrt:per_thread_data.obj
 0002:000e50dc       $unwind$?fin$0@?0???$?RV<lambda_e24bbb7b643b32fcea6fa61b31d4c984>@@AEAV<lambda_275893d493268fdec8709772e3fcec0e>@@V<lambda_9d71df4d7cf3f480f8d633942495c3b0>@@@?$__crt_seh_guarded_call@H@@QEAAH$$QEAV<lambda_e24bbb7b643b32fcea6fa61b31d4c984>@@AEAV<lambda_275893d493268fdec8709772e3fcec0e>@@$$QEAV<lambda_9d71df4d7cf3f480f8d633942495c3b0>@@@Z@4HA 00000001801080dc     libucrt:onexit.obj
 0002:000e50dc       $unwind$__acrt_uninitialize_locale$fin$0 00000001801080dc     libucrt:wsetlocale.obj
 0002:000e50dc       $unwind$?fin$0@?0??dllmain_crt_process_detach@@YAH_N@Z@4HA 00000001801080dc     LIBCMT:dll_dllmain.obj
 0002:000e50dc       $unwind$?filt$0@?0??common_exit@@YAXHW4_crt_exit_cleanup_mode@@W4_crt_exit_return_mode@@@Z@4HA 00000001801080dc     libucrt:exit.obj
 0002:000e50dc       $unwind$?fin$0@?0???$?RV<lambda_5e887d1dcbef67a5eb4283622ba103bf>@@AEAV<lambda_4466841279450cc726390878d4a41900>@@V<lambda_341c25c0346d94847f1f3c463c57e077>@@@?$__crt_seh_guarded_call@X@@QEAAX$$QEAV<lambda_5e887d1dcbef67a5eb4283622ba103bf>@@AEAV<lambda_4466841279450cc726390878d4a41900>@@$$QEAV<lambda_341c25c0346d94847f1f3c463c57e077>@@@Z@4HA 00000001801080dc     libucrt:per_thread_data.obj
 0002:000e50dc       $unwind$?fin$0@?0???$?RV<lambda_bfedae4ebbf01fab1bb6dcc6a9e276e0>@@AEAV<lambda_2fe9b910cf3cbf4a0ab98a02ba45b3ec>@@V<lambda_237c231691f317818eb88cc1d5d642d6>@@@?$__crt_seh_guarded_call@H@@QEAAH$$QEAV<lambda_bfedae4ebbf01fab1bb6dcc6a9e276e0>@@AEAV<lambda_2fe9b910cf3cbf4a0ab98a02ba45b3ec>@@$$QEAV<lambda_237c231691f317818eb88cc1d5d642d6>@@@Z@4HA 00000001801080dc     libucrt:close.obj
 0002:000e50dc       $unwind$?fin$0@?0???$?RV<lambda_b521505b218e5242e90febf6bfebc422>@@AEAV<lambda_6978c1fb23f02e42e1d9e99668cc68aa>@@V<lambda_314360699dd331753a4119843814e9a7>@@@?$__crt_seh_guarded_call@H@@QEAAH$$QEAV<lambda_b521505b218e5242e90febf6bfebc422>@@AEAV<lambda_6978c1fb23f02e42e1d9e99668cc68aa>@@$$QEAV<lambda_314360699dd331753a4119843814e9a7>@@@Z@4HA 00000001801080dc     libucrt:commit.obj
 0002:000e50dc       $unwind$__acrt_initialize_lowio$fin$0 00000001801080dc     libucrt:ioinit.obj
 0002:000e50dc       $unwind$__acrt_lowio_ensure_fh_exists$fin$0 00000001801080dc     libucrt:osfinfo.obj
 0002:000e50dc       $unwind$_write$fin$0       00000001801080dc     libucrt:write.obj
 0002:000e50dc       $unwind$?fin$0@?0???$?RV<lambda_c36588078e9f5dfd39652860aa6b3aaf>@@AEAV<lambda_ec61778202f4f5fc7e7711acc23c3bca>@@V<lambda_dc9d2797ccde5d239b4a0efae8ebd7db>@@@?$__crt_seh_guarded_call@P6AXH@Z@@QEAAP6AXH@Z$$QEAV<lambda_c36588078e9f5dfd39652860aa6b3aaf>@@AEAV<lambda_ec61778202f4f5fc7e7711acc23c3bca>@@$$QEAV<lambda_dc9d2797ccde5d239b4a0efae8ebd7db>@@@Z@4HA 00000001801080dc     libucrt:signal.obj
 0002:000e50dc       $unwind$?fin$0@?0???$?RV<lambda_72d1df2b273a38828b1ce30cbf4cdab5>@@AEAV<lambda_876a65b173b8412d3a47c70a915b0cf4>@@V<lambda_41932305e351933ebe8f8be3ed8bb5dc>@@@?$__crt_seh_guarded_call@X@@QEAAX$$QEAV<lambda_72d1df2b273a38828b1ce30cbf4cdab5>@@AEAV<lambda_876a65b173b8412d3a47c70a915b0cf4>@@$$QEAV<lambda_41932305e351933ebe8f8be3ed8bb5dc>@@@Z@4HA 00000001801080dc     libucrt:per_thread_data.obj
 0002:000e50dc       $unwind$?fin$0@?0???$?RV<lambda_99476a1ad63dd22509b5d3e65b0ffc95>@@AEAV<lambda_ad1ced32f4ac17aa236e5ef05d6b3b7c>@@V<lambda_f7424dd8d45958661754dc4f2697e9c3>@@@?$__crt_seh_guarded_call@X@@QEAAX$$QEAV<lambda_99476a1ad63dd22509b5d3e65b0ffc95>@@AEAV<lambda_ad1ced32f4ac17aa236e5ef05d6b3b7c>@@$$QEAV<lambda_f7424dd8d45958661754dc4f2697e9c3>@@@Z@4HA 00000001801080dc     libucrt:mbctype.obj
 0002:000e50dc       $unwind$_ctrlfp$filt$0     00000001801080dc     libucrt:fpctrl.obj
 0002:000e50dc       $unwind$?fin$0@?0??dllmain_crt_process_attach@@YAHQEAUHINSTANCE__@@QEAX@Z@4HA 00000001801080dc     LIBCMT:dll_dllmain.obj
 0002:000e50dc       $unwind$?fin$0@?0???$?RV<lambda_b8c45f8f788dd370798f47cfe8ac3a86>@@AEAV<lambda_4e60a939b0d047cfe11ddc22648dfba9>@@V<lambda_332c3edc96d0294ec56c57d38c1cdfd5>@@@?$__crt_seh_guarded_call@H@@QEAAH$$QEAV<lambda_b8c45f8f788dd370798f47cfe8ac3a86>@@AEAV<lambda_4e60a939b0d047cfe11ddc22648dfba9>@@$$QEAV<lambda_332c3edc96d0294ec56c57d38c1cdfd5>@@@Z@4HA 00000001801080dc     libucrt:onexit.obj
 0002:000e50dc       $unwind$common_flush_all$fin$0 00000001801080dc     libucrt:fflush.obj
 0002:000e50dc       $unwind$common_flush_all$fin$1 00000001801080dc     libucrt:fflush.obj
 0002:000e50dc       $unwind$_query_new_handler$fin$0 00000001801080dc     libucrt:new_handler.obj
 0002:000e50dc       $unwind$fclose$fin$0       00000001801080dc     libucrt:fclose.obj
 0002:000e50dc       $unwind$raise$fin$0        00000001801080dc     libucrt:signal.obj
 0002:000e50dc       $unwind$_fcloseall$fin$0   00000001801080dc     libucrt:closeall.obj
 0002:000e50e4       $unwind$_initterm          00000001801080e4     libucrt:initterm.obj
 0002:000e50e4       $unwind$__acrt_initialize_stdio 00000001801080e4     libucrt:_file.obj
 0002:000e50fc       $unwind$common_flush_all   00000001801080fc     libucrt:fflush.obj
 0002:000e5138       $unwind$__acrt_get_sigabrt_handler 0000000180108138     libucrt:signal.obj
 0002:000e5140       $unwind$raise              0000000180108140     libucrt:signal.obj
 0002:000e516c       $unwind$??$?RV<lambda_c36588078e9f5dfd39652860aa6b3aaf>@@AEAV<lambda_ec61778202f4f5fc7e7711acc23c3bca>@@V<lambda_dc9d2797ccde5d239b4a0efae8ebd7db>@@@?$__crt_seh_guarded_call@P6AXH@Z@@QEAAP6AXH@Z$$QEAV<lambda_c36588078e9f5dfd39652860aa6b3aaf>@@AEAV<lambda_ec61778202f4f5fc7e7711acc23c3bca>@@$$QEAV<lambda_dc9d2797ccde5d239b4a0efae8ebd7db>@@@Z 000000018010816c     libucrt:signal.obj
 0002:000e5190       $unwind$_tolower_l         0000000180108190     libucrt:tolower_toupper.obj
 0002:000e51a0       $unwind$__acrt_uninitialize_locale 00000001801081a0     libucrt:wsetlocale.obj
 0002:000e51c0       $unwind$__acrt_initialize_winapi_thunks 00000001801081c0     libucrt:winapi_thunks.obj
 0002:000e51c8       $unwind$__acrt_LCMapStringEx 00000001801081c8     libucrt:winapi_thunks.obj
 0002:000e51c8       $unwind$_mbtowc_l          00000001801081c8     libucrt:mbtowc.obj
 0002:000e51e0       $unwind$__acrt_is_packaged_app 00000001801081e0     libucrt:winapi_thunks.obj
 0002:000e51ec       $unwind$??$common_expand_argv_wildcards@D@@YAHQEAPEADQEAPEAPEAD@Z 00000001801081ec     libucrt:argv_wildcards.obj
 0002:000e5204       $unwind$??$copy_and_add_argument_to_buffer@D@@YAHQEBD0_KAEAV?$argument_list@D@?A0xca0879c4@@@Z 0000000180108204     libucrt:argv_wildcards.obj
 0002:000e5220       $unwind$??$expand_argument_wildcards@D@@YAHQEAD0AEAV?$argument_list@D@?A0xca0879c4@@@Z 0000000180108220     libucrt:argv_wildcards.obj
 0002:000e5240       $unwind$__acrt_update_thread_multibyte_data 0000000180108240     libucrt:mbctype.obj
 0002:000e5264       $unwind$_setmbcp_nolock    0000000180108264     libucrt:mbctype.obj
 0002:000e5284       $unwind$?setSBUpLow@@YAXPEAU__crt_multibyte_data@@@Z 0000000180108284     libucrt:mbctype.obj
 0002:000e52a0       $unwind$?setmbcp_internal@@YAHH_N@Z 00000001801082a0     libucrt:mbctype.obj
 0002:000e52b0       $unwind$??$?RV<lambda_99476a1ad63dd22509b5d3e65b0ffc95>@@AEAV<lambda_ad1ced32f4ac17aa236e5ef05d6b3b7c>@@V<lambda_f7424dd8d45958661754dc4f2697e9c3>@@@?$__crt_seh_guarded_call@X@@QEAAX$$QEAV<lambda_99476a1ad63dd22509b5d3e65b0ffc95>@@AEAV<lambda_ad1ced32f4ac17aa236e5ef05d6b3b7c>@@$$QEAV<lambda_f7424dd8d45958661754dc4f2697e9c3>@@@Z 00000001801082b0     libucrt:mbctype.obj
 0002:000e52d4       $unwind$?x_ismbbtype_l@@YAHPEAU__crt_locale_pointers@@IHH@Z 00000001801082d4     libucrt:ismbbyte.obj
 0002:000e52d4       $unwind$_stricmp_l         00000001801082d4     libucrt:stricmp.obj
 0002:000e52e4       $unwind$__dcrt_get_narrow_environment_from_os 00000001801082e4     libucrt:get_environment_from_os.obj
 0002:000e52fc       $unwind$__acrt_initialize_lowio 00000001801082fc     libucrt:ioinit.obj
 0002:000e531c       $unwind$?initialize_inherited_file_handles_nolock@@YAXXZ 000000018010831c     libucrt:ioinit.obj
 0002:000e5338       $unwind$_free_osfhnd       0000000180108338     libucrt:osfinfo.obj
 0002:000e5338       $unwind$?initialize_stdio_handles_nolock@@YAXXZ 0000000180108338     libucrt:ioinit.obj
 0002:000e5338       $unwind$__std_exception_copy 0000000180108338     libvcruntime:std_exception.obj
 0002:000e534c       $unwind$_isctype_l         000000018010834c     libucrt:isctype.obj
 0002:000e5368       $unwind$__acrt_update_thread_locale_data 0000000180108368     libucrt:locale_refcounting.obj
 0002:000e538c       $unwind$_fcloseall         000000018010838c     libucrt:closeall.obj
 0002:000e53b0       $unwind$_commit            00000001801083b0     libucrt:commit.obj
 0002:000e53b0       $unwind$_close             00000001801083b0     libucrt:close.obj
 0002:000e53b8       $unwind$??$?RV<lambda_b521505b218e5242e90febf6bfebc422>@@AEAV<lambda_6978c1fb23f02e42e1d9e99668cc68aa>@@V<lambda_314360699dd331753a4119843814e9a7>@@@?$__crt_seh_guarded_call@H@@QEAAH$$QEAV<lambda_b521505b218e5242e90febf6bfebc422>@@AEAV<lambda_6978c1fb23f02e42e1d9e99668cc68aa>@@$$QEAV<lambda_314360699dd331753a4119843814e9a7>@@@Z 00000001801083b8     libucrt:commit.obj
 0002:000e53dc       $unwind$_write             00000001801083dc     libucrt:write.obj
 0002:000e540c       $unwind$_write_nolock      000000018010840c     libucrt:write.obj
 0002:000e5424       $unwind$?write_double_translated_ansi_nolock@@YA?AUwrite_result@?A0x9c548279@@HQEBDI@Z 0000000180108424     libucrt:write.obj
 0002:000e5444       $unwind$?write_text_ansi_nolock@@YA?AUwrite_result@?A0x9c548279@@HQEBDI@Z 0000000180108444     libucrt:write.obj
 0002:000e5444       $unwind$?write_text_utf16le_nolock@@YA?AUwrite_result@?A0x9c548279@@HQEBDI@Z 0000000180108444     libucrt:write.obj
 0002:000e5464       $unwind$?write_text_utf8_nolock@@YA?AUwrite_result@?A0x9c548279@@HQEBDI@Z 0000000180108464     libucrt:write.obj
 0002:000e5488       $unwind$?getSystemCP@@YAHH@Z 0000000180108488     libucrt:mbctype.obj
 0002:000e5488       $unwind$_isleadbyte_l      0000000180108488     libucrt:_wctype.obj
 0002:000e5490       $unwind$__acrt_LCMapStringA 0000000180108490     libucrt:lcmapstringa.obj
 0002:000e54a0       $unwind$?__acrt_LCMapStringA_stat@@YAHPEAU__crt_locale_pointers@@PEB_WKPEBDHPEADHHH@Z 00000001801084a0     libucrt:lcmapstringa.obj
 0002:000e54c8       $unwind$__acrt_locale_free_monetary 00000001801084c8     libucrt:initmon.obj
 0002:000e54d0       $unwind$__acrt_locale_free_time 00000001801084d0     libucrt:inittime.obj
 0002:000e54e0       $unwind$__acrt_GetStringTypeA 00000001801084e0     libucrt:getstringtypea.obj
 0002:000e5508       $unwind$?GetTableIndexFromLocaleName@@YAHPEB_W@Z 0000000180108508     libucrt:lcidtoname_downlevel.obj
 0002:000e5520       $unwind$strpbrk            0000000180108520     libucrt:strpbrk.obj
 0002:000e5530       $unwind$_mbsdec_l          0000000180108530     libucrt:mbsdec.obj
 0002:000e553c       $unwind$__acrt_lowio_destroy_handle_array 000000018010853c     libucrt:osfinfo.obj
 0002:000e554c       $unwind$__acrt_lowio_ensure_fh_exists 000000018010854c     libucrt:osfinfo.obj
 0002:000e5578       $unwind$fclose             0000000180108578     libucrt:fclose.obj
 0002:000e559c       $unwind$_putwch_nolock     000000018010859c     libucrt:putwch.obj
 0002:000e559c       $unwind$__report_gsfailure 000000018010859c     LIBCMT:gs_report.obj
 0002:000e55a8       $xdatasym                  00000001801085a8     libucrt:log10.obj
 0002:000e55b4       $unwind$??$?RV<lambda_bfedae4ebbf01fab1bb6dcc6a9e276e0>@@AEAV<lambda_2fe9b910cf3cbf4a0ab98a02ba45b3ec>@@V<lambda_237c231691f317818eb88cc1d5d642d6>@@@?$__crt_seh_guarded_call@H@@QEAAH$$QEAV<lambda_bfedae4ebbf01fab1bb6dcc6a9e276e0>@@AEAV<lambda_2fe9b910cf3cbf4a0ab98a02ba45b3ec>@@$$QEAV<lambda_237c231691f317818eb88cc1d5d642d6>@@@Z 00000001801085b4     libucrt:close.obj
 0002:000e55d8       $unwind$_call_matherr      00000001801085d8     libucrt:libm_error.obj
 0002:000e55e0       $unwind$_handle_error      00000001801085e0     libucrt:libm_error.obj
 0002:000e5600       $unwind$__acrt_initialize_fma3 0000000180108600     libucrt:fma3_available.obj
 0002:000e5608       $unwind$_log_special_common 0000000180108608     libucrt:log_special.obj
 0002:000e5614       $unwind$_invalid_parameter_noinfo 0000000180108614     libucrt:invalid_parameter.obj
 0002:000e5614       $unwind$_log10_special     0000000180108614     libucrt:log_special.obj
 0002:000e5620       $xdatasym                  0000000180108620     libucrt:fpsr.obj
 0002:000e5628       $unwind$?__scrt_throw_std_bad_alloc@@YAXXZ 0000000180108628     LIBCMT:throw_bad_alloc.obj
 0002:000e5628       $unwind$__dcrt_lowio_initialize_console_output 0000000180108628     libucrt:initcon.obj
 0002:000e5628       $unwind$?__scrt_throw_std_bad_array_new_length@@YAXXZ 0000000180108628     LIBCMT:throw_bad_alloc.obj
 0002:000e5628       $unwind$_raise_exc         0000000180108628     libucrt:fpexcept.obj
 0002:000e5630       $unwind$_raise_exc_ex      0000000180108630     libucrt:fpexcept.obj
 0002:000e5644       $unwind$_ctrlfp            0000000180108644     libucrt:fpctrl.obj
 0002:000e566c       $unwind$?DloadObtainSection@@YAPEAXPEAK0@Z 000000018010866c     DelayImp:delayhlp.obj
 0002:000e567c       $unwind$?DloadMakePermanentImageCommit@@YAXPEAX_K@Z 000000018010867c     DelayImp:delayhlp.obj
 0002:000e5688       $unwind$?DloadProtectSection@@YAXKPEAK@Z 0000000180108688     DelayImp:delayhlp.obj
 0002:000e5698       $unwind$__delayLoadHelper2 0000000180108698     DelayImp:delayhlp.obj
 0002:000e56b0       $unwind$_IsNonwritableInCurrentImage 00000001801086b0     LIBCMT:pesect.obj
 0002:000e56d8       $xdatasym                  00000001801086d8     LIBCMT:_chkstk_.obj
 0002:000e56e0       $xdatasym                  00000001801086e0     libvcruntime:memcpy.obj
 0002:000e56e8       $xdatasym                  00000001801086e8     libvcruntime:memcmp.obj
 0002:000e6390       .edata                     0000000180109390     iconv.exp
 0002:000e63b8       rgpv                       00000001801093b8     iconv.exp
 0002:000e63bc       rgszName                   00000001801093bc     iconv.exp
 0002:000e63c0       rgwOrd                     00000001801093c0     iconv.exp
 0002:000e63c2       szName                     00000001801093c2     iconv.exp
 0002:000e63cd       $N00001                    00000001801093cd     iconv.exp
 0002:000e666c       .idata$6                   000000018010966c     kernel32:KERNEL32.dll
 0003:00000030       ?__vcrt_flsindex@@3KA      000000018010a030     libvcruntime:per_thread_data.obj
 0003:00000040       errno_no_memory            000000018010a040     libucrt:errno.obj
 0003:00000044       doserrno_no_memory         000000018010a044     libucrt:errno.obj
 0003:0000004c       __acrt_flsindex            000000018010a04c     libucrt:per_thread_data.obj
 0003:00000500       __rgctypeflag              000000018010a500     libucrt:mbctype.obj
 0003:00000510       __rgcode_page_info         000000018010a510     libucrt:mbctype.obj
 0003:000008d0       ?dazSupported@?1??_ctrlfp@@9@9 000000018010a8d0     libucrt:fpctrl.obj
 0003:000008f0       _module                    000000018010a8f0     binding.obj
 0003:00000b08       ?module_local_atexit_table@@3U_onexit_table_t@@A 000000018010ab08     LIBCMT:utility.obj
 0003:00000b20       ?module_local_at_quick_exit_table@@3U_onexit_table_t@@A 000000018010ab20     LIBCMT:utility.obj
 0003:00000b38       ?is_initialized_as_dll@@3_NA 000000018010ab38     LIBCMT:utility.obj
 0003:00000b3c       ?__proc_attached@@3HA      000000018010ab3c     LIBCMT:dll_dllmain.obj
 0003:00000b40       GS_ExceptionRecord         000000018010ab40     LIBCMT:gs_report.obj
 0003:00000be0       GS_ContextRecord           000000018010abe0     LIBCMT:gs_report.obj
 0003:000010e0       ?__vcrt_startup_thread_ptd@@3U__vcrt_ptd@@A 000000018010b0e0     libvcruntime:per_thread_data.obj
 0003:00001158       __vcrt_lock_table          000000018010b158     libvcruntime:locks.obj
 0003:00001180       __vcrt_locks_initialized   000000018010b180     libvcruntime:locks.obj
 0003:00001190       ?module_handles@@3PAPEAUHINSTANCE__@@A 000000018010b190     libvcruntime:winapi_downlevel.obj
 0003:000011b0       ?encoded_function_pointers@@3PAPEAXA 000000018010b1b0     libvcruntime:winapi_downlevel.obj
 0003:00001248       ?heap@@3V_HeapManager@@A   000000018010b248     libvcruntime:undname.obj
 0003:00001270       __acrt_new_handler         000000018010b270     libucrt:new_handler.obj
 0003:00001278       c_termination_complete     000000018010b278     libucrt:exit.obj
 0003:00001280       thread_local_exit_callback_func 000000018010b280     libucrt:exit.obj
 0003:00001288       ?c_exit_complete@?5??common_exit@@YAXHW4_crt_exit_cleanup_mode@@W4_crt_exit_return_mode@@@Z@4_NA 000000018010b288     libucrt:exit.obj
 0003:00001290       ?program_name@?5???$common_configure_argv@D@@YAHW4_crt_argv_mode@@@Z@4PADA 000000018010b290     libucrt:argv_parsing.obj
 0003:000013e8       __acrt_invalid_parameter_handler 000000018010b3e8     libucrt:invalid_parameter.obj
 0003:000013f0       __acrt_app_type            000000018010b3f0     libucrt:report_runtime_error.obj
 0003:00001408       ctrlc_action               000000018010b408     libucrt:signal.obj
 0003:00001410       ctrlbreak_action           000000018010b410     libucrt:signal.obj
 0003:00001418       abort_action               000000018010b418     libucrt:signal.obj
 0003:00001420       term_action                000000018010b420     libucrt:signal.obj
 0003:00001440       __acrt_lock_table          000000018010b440     libucrt:locks.obj
 0003:00001648       __acrt_locks_initialized   000000018010b648     libucrt:locks.obj
 0003:00001650       module_handles             000000018010b650     libucrt:winapi_thunks.obj
 0003:000016f0       encoded_function_pointers  000000018010b6f0     libucrt:winapi_thunks.obj
 0003:000017f0       ?state_cache@?1??__acrt_is_packaged_app@@9@4JA 000000018010b7f0     libucrt:winapi_thunks.obj
 0003:0000180c       fSystemSet                 000000018010b80c     libucrt:mbctype.obj
 0003:00001818       ?initialized@?1??__acrt_initialize_multibyte@@9@4_NA 000000018010b818     libucrt:mbctype.obj
 0003:00001c58       user_matherr               000000018010bc58     libucrt:matherr.obj
 0003:00001c70       __acrt_global_new_mode     000000018010bc70     libucrt:new_mode.obj
 0004:00000000       $pdata$?FunctionCallbackWrapper@imp@Nan@@YAXAEBV?$FunctionCallbackInfo@VValue@v8@@@v8@@@Z 000000018010c000     binding.obj
 0004:0000000c       $pdata$?New@?$Factory@VFunctionTemplate@v8@@@imp@Nan@@SA?AV?$Local@VFunctionTemplate@v8@@@v8@@P6AXAEBV?$FunctionCallbackInfo@VValue@v8@@@3@@ZV?$Local@VValue@v8@@@5@V?$Local@VSignature@v8@@@5@@Z 000000018010c00c     binding.obj
 0004:00000018       $pdata$0$?New@?$Factory@VFunctionTemplate@v8@@@imp@Nan@@SA?AV?$Local@VFunctionTemplate@v8@@@v8@@P6AXAEBV?$FunctionCallbackInfo@VValue@v8@@@3@@ZV?$Local@VValue@v8@@@5@V?$Local@VSignature@v8@@@5@@Z 000000018010c018     binding.obj
 0004:00000024       $pdata$1$?New@?$Factory@VFunctionTemplate@v8@@@imp@Nan@@SA?AV?$Local@VFunctionTemplate@v8@@@v8@@P6AXAEBV?$FunctionCallbackInfo@VValue@v8@@@3@@ZV?$Local@VValue@v8@@@5@V?$Local@VSignature@v8@@@5@@Z 000000018010c024     binding.obj
 0004:00000030       $pdata$?WeakCallback@Iconv@?A0x9d7288fc@@SAXAEBV?$WeakCallbackInfo@UIconv@?A0x9d7288fc@@@Nan@@@Z 000000018010c030     binding.obj
 0004:0000003c       $pdata$?Initialize@Iconv@?A0x9d7288fc@@SAXV?$Local@VObject@v8@@@v8@@@Z 000000018010c03c     binding.obj
 0004:00000048       $pdata$?Make@Iconv@?A0x9d7288fc@@SAXAEBV?$FunctionCallbackInfo@VValue@v8@@@Nan@@@Z 000000018010c048     binding.obj
 0004:00000054       $pdata$0$?Make@Iconv@?A0x9d7288fc@@SAXAEBV?$FunctionCallbackInfo@VValue@v8@@@Nan@@@Z 000000018010c054     binding.obj
 0004:00000060       $pdata$1$?Make@Iconv@?A0x9d7288fc@@SAXAEBV?$FunctionCallbackInfo@VValue@v8@@@Nan@@@Z 000000018010c060     binding.obj
 0004:0000006c       $pdata$?Convert@Iconv@?A0x9d7288fc@@SAXAEBV?$FunctionCallbackInfo@VValue@v8@@@Nan@@@Z 000000018010c06c     binding.obj
 0004:00000078       $pdata$??$invokeparameter@$00@?$WeakCallbackInfo@UIconv@?A0x9d7288fc@@@Nan@@CAXAEBV?$WeakCallbackInfo@V?$WeakCallbackInfo@UIconv@?A0x9d7288fc@@@Nan@@@v8@@@Z 000000018010c078     binding.obj
 0004:00000084       $pdata$??$invokeparameter@$0A@@?$WeakCallbackInfo@UIconv@?A0x9d7288fc@@@Nan@@CAXAEBV?$WeakCallbackInfo@V?$WeakCallbackInfo@UIconv@?A0x9d7288fc@@@Nan@@@v8@@@Z 000000018010c084     binding.obj
 0004:00000090       $pdata$utf8_mbtowc         000000018010c090     iconv.obj
 0004:0000009c       $pdata$0$utf8_mbtowc       000000018010c09c     iconv.obj
 0004:000000a8       $pdata$2$utf8_mbtowc       000000018010c0a8     iconv.obj
 0004:000000b4       $pdata$ucs2_mbtowc         000000018010c0b4     iconv.obj
 0004:000000c0       $pdata$ucs4_mbtowc         000000018010c0c0     iconv.obj
 0004:000000cc       $pdata$utf16_mbtowc        000000018010c0cc     iconv.obj
 0004:000000d8       $pdata$utf32_mbtowc        000000018010c0d8     iconv.obj
 0004:000000e4       $pdata$utf7_mbtowc         000000018010c0e4     iconv.obj
 0004:000000f0       $pdata$utf7_wctomb         000000018010c0f0     iconv.obj
 0004:000000fc       $pdata$utf7_reset          000000018010c0fc     iconv.obj
 0004:00000108       $pdata$c99_mbtowc          000000018010c108     iconv.obj
 0004:00000114       $pdata$java_mbtowc         000000018010c114     iconv.obj
 0004:00000120       $pdata$1$java_mbtowc       000000018010c120     iconv.obj
 0004:0000012c       $pdata$3$java_mbtowc       000000018010c12c     iconv.obj
 0004:00000138       $pdata$5$java_mbtowc       000000018010c138     iconv.obj
 0004:00000144       $pdata$7$java_mbtowc       000000018010c144     iconv.obj
 0004:00000150       $pdata$cp1255_mbtowc       000000018010c150     iconv.obj
 0004:0000015c       $pdata$cp1255_wctomb       000000018010c15c     iconv.obj
 0004:00000168       $pdata$0$cp1255_wctomb     000000018010c168     iconv.obj
 0004:00000174       $pdata$2$cp1255_wctomb     000000018010c174     iconv.obj
 0004:00000180       $pdata$4$cp1255_wctomb     000000018010c180     iconv.obj
 0004:0000018c       $pdata$6$cp1255_wctomb     000000018010c18c     iconv.obj
 0004:00000198       $pdata$8$cp1255_wctomb     000000018010c198     iconv.obj
 0004:000001a4       $pdata$10$cp1255_wctomb    000000018010c1a4     iconv.obj
 0004:000001b0       $pdata$12$cp1255_wctomb    000000018010c1b0     iconv.obj
 0004:000001bc       $pdata$14$cp1255_wctomb    000000018010c1bc     iconv.obj
 0004:000001c8       $pdata$cp1258_mbtowc       000000018010c1c8     iconv.obj
 0004:000001d4       $pdata$cp1258_wctomb       000000018010c1d4     iconv.obj
 0004:000001e0       $pdata$0$cp1258_wctomb     000000018010c1e0     iconv.obj
 0004:000001ec       $pdata$2$cp1258_wctomb     000000018010c1ec     iconv.obj
 0004:000001f8       $pdata$4$cp1258_wctomb     000000018010c1f8     iconv.obj
 0004:00000204       $pdata$6$cp1258_wctomb     000000018010c204     iconv.obj
 0004:00000210       $pdata$8$cp1258_wctomb     000000018010c210     iconv.obj
 0004:0000021c       $pdata$10$cp1258_wctomb    000000018010c21c     iconv.obj
 0004:00000228       $pdata$tcvn_mbtowc         000000018010c228     iconv.obj
 0004:00000234       $pdata$tcvn_wctomb         000000018010c234     iconv.obj
 0004:00000240       $pdata$jisx0208_wctomb     000000018010c240     iconv.obj
 0004:0000024c       $pdata$0$jisx0208_wctomb   000000018010c24c     iconv.obj
 0004:00000258       $pdata$2$jisx0208_wctomb   000000018010c258     iconv.obj
 0004:00000264       $pdata$3$jisx0208_wctomb   000000018010c264     iconv.obj
 0004:00000270       $pdata$isoir165_mbtowc     000000018010c270     iconv.obj
 0004:0000027c       $pdata$isoir165_wctomb     000000018010c27c     iconv.obj
 0004:00000288       $pdata$gbkext_inv_wctomb   000000018010c288     iconv.obj
 0004:00000294       $pdata$gbk_mbtowc          000000018010c294     iconv.obj
 0004:000002a0       $pdata$gbk_wctomb          000000018010c2a0     iconv.obj
 0004:000002ac       $pdata$johab_hangul_mbtowc 000000018010c2ac     iconv.obj
 0004:000002b8       $pdata$0$johab_hangul_mbtowc 000000018010c2b8     iconv.obj
 0004:000002c4       $pdata$2$johab_hangul_mbtowc 000000018010c2c4     iconv.obj
 0004:000002d0       $pdata$4$johab_hangul_mbtowc 000000018010c2d0     iconv.obj
 0004:000002dc       $pdata$5$johab_hangul_mbtowc 000000018010c2dc     iconv.obj
 0004:000002e8       $pdata$johab_hangul_decompose 000000018010c2e8     iconv.obj
 0004:000002f4       $pdata$euc_jp_mbtowc       000000018010c2f4     iconv.obj
 0004:00000300       $pdata$euc_jp_wctomb       000000018010c300     iconv.obj
 0004:0000030c       $pdata$sjis_wctomb         000000018010c30c     iconv.obj
 0004:00000318       $pdata$cp932_wctomb        000000018010c318     iconv.obj
 0004:00000324       $pdata$iso2022_jp_mbtowc   000000018010c324     iconv.obj
 0004:00000330       $pdata$iso2022_jp_wctomb   000000018010c330     iconv.obj
 0004:0000033c       $pdata$0$iso2022_jp_wctomb 000000018010c33c     iconv.obj
 0004:00000348       $pdata$2$iso2022_jp_wctomb 000000018010c348     iconv.obj
 0004:00000354       $pdata$iso2022_jp1_mbtowc  000000018010c354     iconv.obj
 0004:00000360       $pdata$iso2022_jp1_wctomb  000000018010c360     iconv.obj
 0004:0000036c       $pdata$0$iso2022_jp1_wctomb 000000018010c36c     iconv.obj
 0004:00000378       $pdata$1$iso2022_jp1_wctomb 000000018010c378     iconv.obj
 0004:00000384       $pdata$2$iso2022_jp1_wctomb 000000018010c384     iconv.obj
 0004:00000390       $pdata$iso2022_jp2_mbtowc  000000018010c390     iconv.obj
 0004:0000039c       $pdata$iso2022_jp2_wctomb  000000018010c39c     iconv.obj
 0004:000003a8       $pdata$0$iso2022_jp2_wctomb 000000018010c3a8     iconv.obj
 0004:000003b4       $pdata$2$iso2022_jp2_wctomb 000000018010c3b4     iconv.obj
 0004:000003c0       $pdata$euc_cn_wctomb       000000018010c3c0     iconv.obj
 0004:000003cc       $pdata$ces_gbk_wctomb      000000018010c3cc     iconv.obj
 0004:000003d8       $pdata$cp936_mbtowc        000000018010c3d8     iconv.obj
 0004:000003e4       $pdata$cp936_wctomb        000000018010c3e4     iconv.obj
 0004:000003f0       $pdata$gb18030uni_mbtowc   000000018010c3f0     iconv.obj
 0004:000003fc       $pdata$0$gb18030uni_mbtowc 000000018010c3fc     iconv.obj
 0004:00000408       $pdata$2$gb18030uni_mbtowc 000000018010c408     iconv.obj
 0004:00000414       $pdata$3$gb18030uni_mbtowc 000000018010c414     iconv.obj
 0004:00000420       $pdata$gb18030uni_wctomb   000000018010c420     iconv.obj
 0004:0000042c       $pdata$0$gb18030uni_wctomb 000000018010c42c     iconv.obj
 0004:00000438       $pdata$2$gb18030uni_wctomb 000000018010c438     iconv.obj
 0004:00000444       $pdata$3$gb18030uni_wctomb 000000018010c444     iconv.obj
 0004:00000450       $pdata$gb18030_mbtowc      000000018010c450     iconv.obj
 0004:0000045c       $pdata$gb18030_wctomb      000000018010c45c     iconv.obj
 0004:00000468       $pdata$iso2022_cn_mbtowc   000000018010c468     iconv.obj
 0004:00000474       $pdata$iso2022_cn_wctomb   000000018010c474     iconv.obj
 0004:00000480       $pdata$iso2022_cn_ext_mbtowc 000000018010c480     iconv.obj
 0004:0000048c       $pdata$iso2022_cn_ext_wctomb 000000018010c48c     iconv.obj
 0004:00000498       $pdata$hz_mbtowc           000000018010c498     iconv.obj
 0004:000004a4       $pdata$hz_wctomb           000000018010c4a4     iconv.obj
 0004:000004b0       $pdata$0$hz_wctomb         000000018010c4b0     iconv.obj
 0004:000004bc       $pdata$2$hz_wctomb         000000018010c4bc     iconv.obj
 0004:000004c8       $pdata$euc_tw_mbtowc       000000018010c4c8     iconv.obj
 0004:000004d4       $pdata$euc_tw_wctomb       000000018010c4d4     iconv.obj
 0004:000004e0       $pdata$ces_big5_wctomb     000000018010c4e0     iconv.obj
 0004:000004ec       $pdata$cp950ext_wctomb     000000018010c4ec     iconv.obj
 0004:000004f8       $pdata$cp950_mbtowc        000000018010c4f8     iconv.obj
 0004:00000504       $pdata$3$cp950_mbtowc      000000018010c504     iconv.obj
 0004:00000510       $pdata$5$cp950_mbtowc      000000018010c510     iconv.obj
 0004:0000051c       $pdata$cp950_wctomb        000000018010c51c     iconv.obj
 0004:00000528       $pdata$big5hkscs1999_mbtowc 000000018010c528     iconv.obj
 0004:00000534       $pdata$big5hkscs1999_wctomb 000000018010c534     iconv.obj
 0004:00000540       $pdata$hkscs2001_wctomb    000000018010c540     iconv.obj
 0004:0000054c       $pdata$big5hkscs2001_mbtowc 000000018010c54c     iconv.obj
 0004:00000558       $pdata$big5hkscs2001_wctomb 000000018010c558     iconv.obj
 0004:00000564       $pdata$hkscs2004_wctomb    000000018010c564     iconv.obj
 0004:00000570       $pdata$big5hkscs2004_mbtowc 000000018010c570     iconv.obj
 0004:0000057c       $pdata$big5hkscs2004_wctomb 000000018010c57c     iconv.obj
 0004:00000588       $pdata$hkscs2008_wctomb    000000018010c588     iconv.obj
 0004:00000594       $pdata$big5hkscs2008_mbtowc 000000018010c594     iconv.obj
 0004:000005a0       $pdata$big5hkscs2008_wctomb 000000018010c5a0     iconv.obj
 0004:000005ac       $pdata$euc_kr_mbtowc       000000018010c5ac     iconv.obj
 0004:000005b8       $pdata$euc_kr_wctomb       000000018010c5b8     iconv.obj
 0004:000005c4       $pdata$cp949_mbtowc        000000018010c5c4     iconv.obj
 0004:000005d0       $pdata$0$cp949_mbtowc      000000018010c5d0     iconv.obj
 0004:000005dc       $pdata$2$cp949_mbtowc      000000018010c5dc     iconv.obj
 0004:000005e8       $pdata$4$cp949_mbtowc      000000018010c5e8     iconv.obj
 0004:000005f4       $pdata$6$cp949_mbtowc      000000018010c5f4     iconv.obj
 0004:00000600       $pdata$8$cp949_mbtowc      000000018010c600     iconv.obj
 0004:0000060c       $pdata$cp949_wctomb        000000018010c60c     iconv.obj
 0004:00000618       $pdata$johab_mbtowc        000000018010c618     iconv.obj
 0004:00000624       $pdata$johab_wctomb        000000018010c624     iconv.obj
 0004:00000630       $pdata$iso2022_kr_mbtowc   000000018010c630     iconv.obj
 0004:0000063c       $pdata$iso2022_kr_wctomb   000000018010c63c     iconv.obj
 0004:00000648       $pdata$dec_kanji_wctomb    000000018010c648     iconv.obj
 0004:00000654       $pdata$dec_hanyu_mbtowc    000000018010c654     iconv.obj
 0004:00000660       $pdata$dec_hanyu_wctomb    000000018010c660     iconv.obj
 0004:0000066c       $pdata$euc_jisx0213_mbtowc 000000018010c66c     iconv.obj
 0004:00000678       $pdata$euc_jisx0213_wctomb 000000018010c678     iconv.obj
 0004:00000684       $pdata$shift_jisx0213_mbtowc 000000018010c684     iconv.obj
 0004:00000690       $pdata$shift_jisx0213_wctomb 000000018010c690     iconv.obj
 0004:0000069c       $pdata$iso2022_jp3_mbtowc  000000018010c69c     iconv.obj
 0004:000006a8       $pdata$1$iso2022_jp3_mbtowc 000000018010c6a8     iconv.obj
 0004:000006b4       $pdata$3$iso2022_jp3_mbtowc 000000018010c6b4     iconv.obj
 0004:000006c0       $pdata$iso2022_jp3_wctomb  000000018010c6c0     iconv.obj
 0004:000006cc       $pdata$0$iso2022_jp3_wctomb 000000018010c6cc     iconv.obj
 0004:000006d8       $pdata$1$iso2022_jp3_wctomb 000000018010c6d8     iconv.obj
 0004:000006e4       $pdata$2$iso2022_jp3_wctomb 000000018010c6e4     iconv.obj
 0004:000006f0       $pdata$iso2022_jp3_reset   000000018010c6f0     iconv.obj
 0004:000006fc       $pdata$big5_2003_mbtowc    000000018010c6fc     iconv.obj
 0004:00000708       $pdata$1$big5_2003_mbtowc  000000018010c708     iconv.obj
 0004:00000714       $pdata$3$big5_2003_mbtowc  000000018010c714     iconv.obj
 0004:00000720       $pdata$5$big5_2003_mbtowc  000000018010c720     iconv.obj
 0004:0000072c       $pdata$7$big5_2003_mbtowc  000000018010c72c     iconv.obj
 0004:00000738       $pdata$9$big5_2003_mbtowc  000000018010c738     iconv.obj
 0004:00000744       $pdata$11$big5_2003_mbtowc 000000018010c744     iconv.obj
 0004:00000750       $pdata$13$big5_2003_mbtowc 000000018010c750     iconv.obj
 0004:0000075c       $pdata$15$big5_2003_mbtowc 000000018010c75c     iconv.obj
 0004:00000768       $pdata$17$big5_2003_mbtowc 000000018010c768     iconv.obj
 0004:00000774       $pdata$19$big5_2003_mbtowc 000000018010c774     iconv.obj
 0004:00000780       $pdata$21$big5_2003_mbtowc 000000018010c780     iconv.obj
 0004:0000078c       $pdata$23$big5_2003_mbtowc 000000018010c78c     iconv.obj
 0004:00000798       $pdata$25$big5_2003_mbtowc 000000018010c798     iconv.obj
 0004:000007a4       $pdata$big5_2003_wctomb    000000018010c7a4     iconv.obj
 0004:000007b0       $pdata$unicode_transliterate 000000018010c7b0     iconv.obj
 0004:000007bc       $pdata$uc_to_mb_write_replacement 000000018010c7bc     iconv.obj
 0004:000007c8       $pdata$mb_to_uc_write_replacement 000000018010c7c8     iconv.obj
 0004:000007d4       $pdata$4$mb_to_uc_write_replacement 000000018010c7d4     iconv.obj
 0004:000007e0       $pdata$5$mb_to_uc_write_replacement 000000018010c7e0     iconv.obj
 0004:000007ec       $pdata$6$mb_to_uc_write_replacement 000000018010c7ec     iconv.obj
 0004:000007f8       $pdata$unicode_loop_convert 000000018010c7f8     iconv.obj
 0004:00000804       $pdata$unicode_loop_reset  000000018010c804     iconv.obj
 0004:00000810       $pdata$4$unicode_loop_reset 000000018010c810     iconv.obj
 0004:0000081c       $pdata$6$unicode_loop_reset 000000018010c81c     iconv.obj
 0004:00000828       $pdata$7$unicode_loop_reset 000000018010c828     iconv.obj
 0004:00000834       $pdata$8$unicode_loop_reset 000000018010c834     iconv.obj
 0004:00000840       $pdata$libiconv_open       000000018010c840     iconv.obj
 0004:0000084c       $pdata$?load_exe_hook@@YAP6A_JXZIPEAUDelayLoadInfo@@@Z 000000018010c84c     win_delay_load_hook.obj
 0004:00000870       $pdata$??2@YAPEAX_K@Z      000000018010c870     LIBCMT:new_scalar.obj
 0004:0000087c       $pdata$__scrt_acquire_startup_lock 000000018010c87c     LIBCMT:utility.obj
 0004:00000888       $pdata$__scrt_dllmain_after_initialize_c 000000018010c888     LIBCMT:utility.obj
 0004:00000894       $pdata$__scrt_dllmain_before_initialize_c 000000018010c894     LIBCMT:utility.obj
 0004:000008a0       $pdata$__scrt_dllmain_crt_thread_attach 000000018010c8a0     LIBCMT:utility.obj
 0004:000008ac       $pdata$__scrt_dllmain_crt_thread_detach 000000018010c8ac     LIBCMT:utility.obj
 0004:000008b8       $pdata$__scrt_dllmain_exception_filter 000000018010c8b8     LIBCMT:utility.obj
 0004:000008c4       $pdata$__scrt_dllmain_uninitialize_c 000000018010c8c4     LIBCMT:utility.obj
 0004:000008d0       $pdata$__scrt_dllmain_uninitialize_critical 000000018010c8d0     LIBCMT:utility.obj
 0004:000008dc       $pdata$__scrt_initialize_crt 000000018010c8dc     LIBCMT:utility.obj
 0004:000008e8       $pdata$__scrt_initialize_onexit_tables 000000018010c8e8     LIBCMT:utility.obj
 0004:000008f4       $pdata$__scrt_is_nonwritable_in_current_image 000000018010c8f4     LIBCMT:utility.obj
 0004:00000900       $pdata$__scrt_release_startup_lock 000000018010c900     LIBCMT:utility.obj
 0004:0000090c       $pdata$__scrt_uninitialize_crt 000000018010c90c     LIBCMT:utility.obj
 0004:00000918       $pdata$_onexit             000000018010c918     LIBCMT:utility.obj
 0004:00000924       $pdata$atexit              000000018010c924     LIBCMT:utility.obj
 0004:00000930       $pdata$?dllmain_crt_dispatch@@YAHQEAUHINSTANCE__@@KQEAX@Z 000000018010c930     LIBCMT:dll_dllmain.obj
 0004:0000093c       $pdata$?dllmain_crt_process_attach@@YAHQEAUHINSTANCE__@@QEAX@Z 000000018010c93c     LIBCMT:dll_dllmain.obj
 0004:00000948       $pdata$?dllmain_crt_process_detach@@YAH_N@Z 000000018010c948     LIBCMT:dll_dllmain.obj
 0004:00000954       $pdata$?dllmain_dispatch@@YAHQEAUHINSTANCE__@@KQEAX@Z 000000018010c954     LIBCMT:dll_dllmain.obj
 0004:00000960       $pdata$?dllmain_raw@@YAHQEAUHINSTANCE__@@KQEAX@Z 000000018010c960     LIBCMT:dll_dllmain.obj
 0004:0000096c       $pdata$_DllMainCRTStartup  000000018010c96c     LIBCMT:dll_dllmain.obj
 0004:00000978       $pdata$__raise_securityfailure 000000018010c978     LIBCMT:gs_report.obj
 0004:00000984       $pdata$__report_gsfailure  000000018010c984     LIBCMT:gs_report.obj
 0004:00000990       $pdata$__report_rangecheckfailure 000000018010c990     LIBCMT:gs_report.obj
 0004:0000099c       $pdata$__report_securityfailure 000000018010c99c     LIBCMT:gs_report.obj
 0004:000009a8       $pdata$capture_current_context 000000018010c9a8     LIBCMT:gs_report.obj
 0004:000009b4       $pdata$capture_previous_context 000000018010c9b4     LIBCMT:gs_report.obj
 0004:000009c0       $pdata$??0bad_alloc@std@@QEAA@AEBV01@@Z 000000018010c9c0     LIBCMT:throw_bad_alloc.obj
 0004:000009cc       $pdata$??0bad_array_new_length@std@@QEAA@AEBV01@@Z 000000018010c9cc     LIBCMT:throw_bad_alloc.obj
 0004:000009d8       $pdata$??0exception@std@@QEAA@AEBV01@@Z 000000018010c9d8     LIBCMT:throw_bad_alloc.obj
 0004:000009e4       $pdata$??_Gbad_alloc@std@@UEAAPEAXI@Z 000000018010c9e4     LIBCMT:throw_bad_alloc.obj
 0004:000009e4       $pdata$??_Gexception@std@@UEAAPEAXI@Z 000000018010c9e4     LIBCMT:throw_bad_alloc.obj
 0004:000009e4       $pdata$??_Gbad_array_new_length@std@@UEAAPEAXI@Z 000000018010c9e4     LIBCMT:throw_bad_alloc.obj
 0004:000009f0       $pdata$?__scrt_throw_std_bad_alloc@@YAXXZ 000000018010c9f0     LIBCMT:throw_bad_alloc.obj
 0004:000009fc       $pdata$?__scrt_throw_std_bad_array_new_length@@YAXXZ 000000018010c9fc     LIBCMT:throw_bad_alloc.obj
 0004:00000a08       $pdata$__isa_available_init 000000018010ca08     LIBCMT:_cpu_disp_.obj
 0004:00000a14       $pdata$__scrt_fastfail     000000018010ca14     LIBCMT:utility_desktop.obj
 0004:00000a20       $pdata$__security_init_cookie 000000018010ca20     LIBCMT:gs_support.obj
 0004:00000a2c       $pdata$__scrt_initialize_default_local_stdio_options 000000018010ca2c     LIBCMT:default_local_stdio_options.obj
 0004:00000a38       $pdata$_RTC_Initialize     000000018010ca38     LIBCMT:_initsect_.obj
 0004:00000a44       $pdata$_RTC_Terminate      000000018010ca44     LIBCMT:_initsect_.obj
 0004:00000a50       $pdata$??_Gtype_info@@UEAAPEAXI@Z 000000018010ca50     LIBCMT:std_type_info_static.obj
 0004:00000a5c       $pdata$__vcrt_initialize   000000018010ca5c     libvcruntime:initialization.obj
 0004:00000a68       $pdata$__vcrt_thread_attach 000000018010ca68     libvcruntime:initialization.obj
 0004:00000a74       $pdata$__vcrt_thread_detach 000000018010ca74     libvcruntime:initialization.obj
 0004:00000a80       $pdata$__vcrt_uninitialize 000000018010ca80     libvcruntime:initialization.obj
 0004:00000a8c       $pdata$__vcrt_uninitialize_critical 000000018010ca8c     libvcruntime:initialization.obj
 0004:00000a98       $pdata$__C_specific_handler 000000018010ca98     libvcruntime:_chandler_.obj
 0004:00000aa4       $pdata$__std_exception_copy 000000018010caa4     libvcruntime:std_exception.obj
 0004:00000ab0       $pdata$__std_exception_destroy 000000018010cab0     libvcruntime:std_exception.obj
 0004:00000abc       $pdata$_CxxThrowException  000000018010cabc     libvcruntime:throw.obj
 0004:00000ad4       $pdata$__std_type_info_destroy_list 000000018010cad4     libvcruntime:std_type_info.obj
 0004:00000ae0       $pdata$__vcrt_freefls      000000018010cae0     libvcruntime:per_thread_data.obj
 0004:00000aec       $pdata$__vcrt_freeptd      000000018010caec     libvcruntime:per_thread_data.obj
 0004:00000af8       $pdata$__vcrt_getptd_noexit 000000018010caf8     libvcruntime:per_thread_data.obj
 0004:00000b04       $pdata$__vcrt_initialize_ptd 000000018010cb04     libvcruntime:per_thread_data.obj
 0004:00000b10       $pdata$__vcrt_uninitialize_ptd 000000018010cb10     libvcruntime:per_thread_data.obj
 0004:00000b1c       $pdata$__vcrt_initialize_locks 000000018010cb1c     libvcruntime:locks.obj
 0004:00000b28       $pdata$__vcrt_uninitialize_locks 000000018010cb28     libvcruntime:locks.obj
 0004:00000b34       $pdata$?try_get_function@@YAPEAXW4function_id@?A0x679b24ab@@QEBDQEBW4module_id@2@2@Z 000000018010cb34     libvcruntime:winapi_downlevel.obj
 0004:00000b40       $pdata$__vcrt_FlsAlloc     000000018010cb40     libvcruntime:winapi_downlevel.obj
 0004:00000b4c       $pdata$__vcrt_FlsFree      000000018010cb4c     libvcruntime:winapi_downlevel.obj
 0004:00000b58       $pdata$__vcrt_FlsGetValue  000000018010cb58     libvcruntime:winapi_downlevel.obj
 0004:00000b64       $pdata$__vcrt_FlsSetValue  000000018010cb64     libvcruntime:winapi_downlevel.obj
 0004:00000b70       $pdata$__vcrt_InitializeCriticalSectionEx 000000018010cb70     libvcruntime:winapi_downlevel.obj
 0004:00000b7c       $pdata$__vcrt_uninitialize_winapi_thunks 000000018010cb7c     libvcruntime:winapi_downlevel.obj
 0004:00000bb8       $pdata$__acrt_errno_map_os_error 000000018010cbb8     libucrt:errno.obj
 0004:00000bc4       $pdata$__doserrno          000000018010cbc4     libucrt:errno.obj
 0004:00000bd0       $pdata$_errno              000000018010cbd0     libucrt:errno.obj
 0004:00000bdc       $pdata$abort               000000018010cbdc     libucrt:abort.obj
 0004:00000be8       $pdata$?shortsort@@YAXPEAD0_KP6AHPEBX2@Z@Z 000000018010cbe8     libucrt:qsort.obj
 0004:00000bf4       $pdata$2$?shortsort@@YAXPEAD0_KP6AHPEBX2@Z@Z 000000018010cbf4     libucrt:qsort.obj
 0004:00000c00       $pdata$3$?shortsort@@YAXPEAD0_KP6AHPEBX2@Z@Z 000000018010cc00     libucrt:qsort.obj
 0004:00000c0c       $pdata$qsort               000000018010cc0c     libucrt:qsort.obj
 0004:00000c18       $pdata$4$qsort             000000018010cc18     libucrt:qsort.obj
 0004:00000c24       $pdata$5$qsort             000000018010cc24     libucrt:qsort.obj
 0004:00000c30       $pdata$??0_LocaleUpdate@@QEAA@QEAU__crt_locale_pointers@@@Z 000000018010cc30     libucrt:stricmp.obj
 0004:00000c3c       $pdata$_stricmp            000000018010cc3c     libucrt:stricmp.obj
 0004:00000c48       $pdata$_stricmp_l          000000018010cc48     libucrt:stricmp.obj
 0004:00000c54       $pdata$_callnewh           000000018010cc54     libucrt:new_handler.obj
 0004:00000c60       $pdata$_query_new_handler  000000018010cc60     libucrt:new_handler.obj
 0004:00000c6c       $pdata$_seh_filter_exe     000000018010cc6c     libucrt:exception_filter.obj
 0004:00000c78       $pdata$?common_exit@@YAXHW4_crt_exit_cleanup_mode@@W4_crt_exit_return_mode@@@Z 000000018010cc78     libucrt:exit.obj
 0004:00000c84       $pdata$?exit_or_terminate_process@@YAXI@Z 000000018010cc84     libucrt:exit.obj
 0004:00000c90       $pdata$?try_cor_exit_process@@YAXI@Z 000000018010cc90     libucrt:exit.obj
 0004:00000c9c       $pdata$??$parse_command_line@D@@YAXPEADPEAPEAD0PEA_K2@Z 000000018010cc9c     libucrt:argv_parsing.obj
 0004:00000ca8       $pdata$__acrt_allocate_buffer_for_argv 000000018010cca8     libucrt:argv_parsing.obj
 0004:00000cb4       $pdata$_configure_narrow_argv 000000018010ccb4     libucrt:argv_parsing.obj
 0004:00000cc0       $pdata$??$common_initialize_environment_nolock@D@@YAHXZ 000000018010ccc0     libucrt:environment_initialization.obj
 0004:00000ccc       $pdata$??$create_environment@D@@YAQEAPEADQEAD@Z 000000018010cccc     libucrt:environment_initialization.obj
 0004:00000cd8       $pdata$??$free_environment@_W@@YAXQEAPEA_W@Z 000000018010ccd8     libucrt:environment_initialization.obj
 0004:00000cd8       $pdata$??$free_environment@D@@YAXQEAPEAD@Z 000000018010ccd8     libucrt:environment_initialization.obj
 0004:00000ce4       $pdata$??$uninitialize_environment_internal@D@@YAXAEAPEAPEAD@Z 000000018010cce4     libucrt:environment_initialization.obj
 0004:00000cf0       $pdata$??$uninitialize_environment_internal@_W@@YAXAEAPEAPEA_W@Z 000000018010ccf0     libucrt:environment_initialization.obj
 0004:00000cfc       $pdata$__dcrt_uninitialize_environments_nolock 000000018010ccfc     libucrt:environment_initialization.obj
 0004:00000d08       $pdata$??$?RV<lambda_b8c45f8f788dd370798f47cfe8ac3a86>@@AEAV<lambda_4e60a939b0d047cfe11ddc22648dfba9>@@V<lambda_332c3edc96d0294ec56c57d38c1cdfd5>@@@?$__crt_seh_guarded_call@H@@QEAAH$$QEAV<lambda_b8c45f8f788dd370798f47cfe8ac3a86>@@AEAV<lambda_4e60a939b0d047cfe11ddc22648dfba9>@@$$QEAV<lambda_332c3edc96d0294ec56c57d38c1cdfd5>@@@Z 000000018010cd08     libucrt:onexit.obj
 0004:00000d14       $pdata$??$?RV<lambda_e24bbb7b643b32fcea6fa61b31d4c984>@@AEAV<lambda_275893d493268fdec8709772e3fcec0e>@@V<lambda_9d71df4d7cf3f480f8d633942495c3b0>@@@?$__crt_seh_guarded_call@H@@QEAAH$$QEAV<lambda_e24bbb7b643b32fcea6fa61b31d4c984>@@AEAV<lambda_275893d493268fdec8709772e3fcec0e>@@$$QEAV<lambda_9d71df4d7cf3f480f8d633942495c3b0>@@@Z 000000018010cd14     libucrt:onexit.obj
 0004:00000d20       $pdata$??R<lambda_4e60a939b0d047cfe11ddc22648dfba9>@@QEBAHXZ 000000018010cd20     libucrt:onexit.obj
 0004:00000d2c       $pdata$_execute_onexit_table 000000018010cd2c     libucrt:onexit.obj
 0004:00000d38       $pdata$_register_onexit_function 000000018010cd38     libucrt:onexit.obj
 0004:00000d44       $pdata$initialize_c        000000018010cd44     libucrt:initialization.obj
 0004:00000d50       $pdata$uninitialize_environment 000000018010cd50     libucrt:initialization.obj
 0004:00000d5c       $pdata$initialize_pointers 000000018010cd5c     libucrt:initialization.obj
 0004:00000d68       $pdata$uninitialize_allocated_memory 000000018010cd68     libucrt:initialization.obj
 0004:00000d74       $pdata$__acrt_thread_attach 000000018010cd74     libucrt:initialization.obj
 0004:00000d80       $pdata$__acrt_thread_detach 000000018010cd80     libucrt:initialization.obj
 0004:00000d8c       $pdata$__acrt_uninitialize_critical 000000018010cd8c     libucrt:initialization.obj
 0004:00000d98       $pdata$_initterm           000000018010cd98     libucrt:initterm.obj
 0004:00000da4       $pdata$_initterm_e         000000018010cda4     libucrt:initterm.obj
 0004:00000db0       $pdata$terminate           000000018010cdb0     libucrt:terminate.obj
 0004:00000dbc       $pdata$strcpy_s            000000018010cdbc     libucrt:strcpy_s.obj
 0004:00000dc8       $pdata$_free_base          000000018010cdc8     libucrt:free_base.obj
 0004:00000dd4       $pdata$_malloc_base        000000018010cdd4     libucrt:malloc_base.obj
 0004:00000de0       $pdata$_calloc_base        000000018010cde0     libucrt:calloc_base.obj
 0004:00000dec       $pdata$__acrt_call_reportfault 000000018010cdec     libucrt:invalid_parameter.obj
 0004:00000df8       $pdata$_invalid_parameter  000000018010cdf8     libucrt:invalid_parameter.obj
 0004:00000e04       $pdata$_invalid_parameter_noinfo 000000018010ce04     libucrt:invalid_parameter.obj
 0004:00000e10       $pdata$_invoke_watson      000000018010ce10     libucrt:invalid_parameter.obj
 0004:00000e1c       $pdata$??$?RV<lambda_46352004c1216016012b18bd6f87e700>@@AEAV<lambda_3bd07e1a1191394380780325891bf33f>@@V<lambda_334532d3f185bcaa59b5be82d7d22bff>@@@?$__crt_seh_guarded_call@X@@QEAAX$$QEAV<lambda_46352004c1216016012b18bd6f87e700>@@AEAV<lambda_3bd07e1a1191394380780325891bf33f>@@$$QEAV<lambda_334532d3f185bcaa59b5be82d7d22bff>@@@Z 000000018010ce1c     libucrt:per_thread_data.obj
 0004:00000e28       $pdata$??$?RV<lambda_5e887d1dcbef67a5eb4283622ba103bf>@@AEAV<lambda_4466841279450cc726390878d4a41900>@@V<lambda_341c25c0346d94847f1f3c463c57e077>@@@?$__crt_seh_guarded_call@X@@QEAAX$$QEAV<lambda_5e887d1dcbef67a5eb4283622ba103bf>@@AEAV<lambda_4466841279450cc726390878d4a41900>@@$$QEAV<lambda_341c25c0346d94847f1f3c463c57e077>@@@Z 000000018010ce28     libucrt:per_thread_data.obj
 0004:00000e34       $pdata$??$?RV<lambda_72d1df2b273a38828b1ce30cbf4cdab5>@@AEAV<lambda_876a65b173b8412d3a47c70a915b0cf4>@@V<lambda_41932305e351933ebe8f8be3ed8bb5dc>@@@?$__crt_seh_guarded_call@X@@QEAAX$$QEAV<lambda_72d1df2b273a38828b1ce30cbf4cdab5>@@AEAV<lambda_876a65b173b8412d3a47c70a915b0cf4>@@$$QEAV<lambda_41932305e351933ebe8f8be3ed8bb5dc>@@@Z 000000018010ce34     libucrt:per_thread_data.obj
 0004:00000e40       $pdata$??$?RV<lambda_fb3a7dec4e47f37f22dae91bb15c9095>@@AEAV<lambda_698284760c8add0bfb0756c19673e34b>@@V<lambda_dfb8eca1e75fef3034a8fb18dd509707>@@@?$__crt_seh_guarded_call@X@@QEAAX$$QEAV<lambda_fb3a7dec4e47f37f22dae91bb15c9095>@@AEAV<lambda_698284760c8add0bfb0756c19673e34b>@@$$QEAV<lambda_dfb8eca1e75fef3034a8fb18dd509707>@@@Z 000000018010ce40     libucrt:per_thread_data.obj
 0004:00000e4c       $pdata$?construct_ptd_array@@YAXQEAU__acrt_ptd@@@Z 000000018010ce4c     libucrt:per_thread_data.obj
 0004:00000e58       $pdata$?destroy_fls@@YAXPEAX@Z 000000018010ce58     libucrt:per_thread_data.obj
 0004:00000e64       $pdata$?destroy_ptd_array@@YAXQEAU__acrt_ptd@@@Z 000000018010ce64     libucrt:per_thread_data.obj
 0004:00000e70       $pdata$?replace_current_thread_locale_nolock@@YAXQEAU__acrt_ptd@@QEAU__crt_locale_data@@@Z 000000018010ce70     libucrt:per_thread_data.obj
 0004:00000e7c       $pdata$__acrt_freeptd      000000018010ce7c     libucrt:per_thread_data.obj
 0004:00000e88       $pdata$__acrt_getptd       000000018010ce88     libucrt:per_thread_data.obj
 0004:00000e94       $pdata$__acrt_getptd_noexit 000000018010ce94     libucrt:per_thread_data.obj
 0004:00000ea0       $pdata$__acrt_initialize_ptd 000000018010cea0     libucrt:per_thread_data.obj
 0004:00000eac       $pdata$__acrt_uninitialize_ptd 000000018010ceac     libucrt:per_thread_data.obj
 0004:00000eb8       $pdata$__acrt_initialize_stdio 000000018010ceb8     libucrt:_file.obj
 0004:00000ec4       $pdata$__acrt_uninitialize_stdio 000000018010cec4     libucrt:_file.obj
 0004:00000ed0       $pdata$__acrt_stdio_flush_nolock 000000018010ced0     libucrt:fflush.obj
 0004:00000edc       $pdata$_fflush_nolock      000000018010cedc     libucrt:fflush.obj
 0004:00000ee8       $pdata$common_flush_all    000000018010cee8     libucrt:fflush.obj
 0004:00000ef4       $pdata$??$?RV<lambda_c36588078e9f5dfd39652860aa6b3aaf>@@AEAV<lambda_ec61778202f4f5fc7e7711acc23c3bca>@@V<lambda_dc9d2797ccde5d239b4a0efae8ebd7db>@@@?$__crt_seh_guarded_call@P6AXH@Z@@QEAAP6AXH@Z$$QEAV<lambda_c36588078e9f5dfd39652860aa6b3aaf>@@AEAV<lambda_ec61778202f4f5fc7e7711acc23c3bca>@@$$QEAV<lambda_dc9d2797ccde5d239b4a0efae8ebd7db>@@@Z 000000018010cef4     libucrt:signal.obj
 0004:00000f00       $pdata$__acrt_get_sigabrt_handler 000000018010cf00     libucrt:signal.obj
 0004:00000f0c       $pdata$raise               000000018010cf0c     libucrt:signal.obj
 0004:00000f18       $pdata$?internal_isupper_l@@YA_NHQEAU__crt_locale_pointers@@@Z 000000018010cf18     libucrt:tolower_toupper.obj
 0004:00000f24       $pdata$_tolower_l          000000018010cf24     libucrt:tolower_toupper.obj
 0004:00000f30       $pdata$__acrt_update_locale_info 000000018010cf30     libucrt:locale_update.obj
 0004:00000f3c       $pdata$__acrt_update_multibyte_info 000000018010cf3c     libucrt:locale_update.obj
 0004:00000f48       $pdata$__acrt_uninitialize_locale 000000018010cf48     libucrt:wsetlocale.obj
 0004:00000f54       $pdata$__acrt_initialize_locks 000000018010cf54     libucrt:locks.obj
 0004:00000f60       $pdata$__acrt_uninitialize_locks 000000018010cf60     libucrt:locks.obj
 0004:00000f6c       $pdata$?try_get_function@@YAPEAXW4function_id@?A0x63058377@@QEBDQEBW4module_id@2@2@Z 000000018010cf6c     libucrt:winapi_thunks.obj
 0004:00000f78       $pdata$__acrt_FlsAlloc     000000018010cf78     libucrt:winapi_thunks.obj
 0004:00000f84       $pdata$__acrt_FlsFree      000000018010cf84     libucrt:winapi_thunks.obj
 0004:00000f90       $pdata$__acrt_FlsGetValue  000000018010cf90     libucrt:winapi_thunks.obj
 0004:00000f9c       $pdata$__acrt_FlsSetValue  000000018010cf9c     libucrt:winapi_thunks.obj
 0004:00000fa8       $pdata$__acrt_InitializeCriticalSectionEx 000000018010cfa8     libucrt:winapi_thunks.obj
 0004:00000fb4       $pdata$__acrt_LCMapStringEx 000000018010cfb4     libucrt:winapi_thunks.obj
 0004:00000fc0       $pdata$__acrt_LocaleNameToLCID 000000018010cfc0     libucrt:winapi_thunks.obj
 0004:00000fcc       $pdata$__acrt_initialize_winapi_thunks 000000018010cfcc     libucrt:winapi_thunks.obj
 0004:00000fd8       $pdata$__acrt_is_packaged_app 000000018010cfd8     libucrt:winapi_thunks.obj
 0004:00000fe4       $pdata$__acrt_uninitialize_winapi_thunks 000000018010cfe4     libucrt:winapi_thunks.obj
 0004:00000ff0       $pdata$??$common_expand_argv_wildcards@D@@YAHQEAPEADQEAPEAPEAD@Z 000000018010cff0     libucrt:argv_wildcards.obj
 0004:00000ffc       $pdata$??$copy_and_add_argument_to_buffer@D@@YAHQEBD0_KAEAV?$argument_list@D@?A0xca0879c4@@@Z 000000018010cffc     libucrt:argv_wildcards.obj
 0004:00001008       $pdata$??$expand_argument_wildcards@D@@YAHQEAD0AEAV?$argument_list@D@?A0xca0879c4@@@Z 000000018010d008     libucrt:argv_wildcards.obj
 0004:00001014       $pdata$?expand_if_necessary@?$argument_list@D@?A0xca0879c4@@AEAAHXZ 000000018010d014     libucrt:argv_wildcards.obj
 0004:00001020       $pdata$??$?RV<lambda_99476a1ad63dd22509b5d3e65b0ffc95>@@AEAV<lambda_ad1ced32f4ac17aa236e5ef05d6b3b7c>@@V<lambda_f7424dd8d45958661754dc4f2697e9c3>@@@?$__crt_seh_guarded_call@X@@QEAAX$$QEAV<lambda_99476a1ad63dd22509b5d3e65b0ffc95>@@AEAV<lambda_ad1ced32f4ac17aa236e5ef05d6b3b7c>@@$$QEAV<lambda_f7424dd8d45958661754dc4f2697e9c3>@@@Z 000000018010d020     libucrt:mbctype.obj
 0004:0000102c       $pdata$??R<lambda_ad1ced32f4ac17aa236e5ef05d6b3b7c>@@QEBAXXZ 000000018010d02c     libucrt:mbctype.obj
 0004:00001038       $pdata$?getSystemCP@@YAHH@Z 000000018010d038     libucrt:mbctype.obj
 0004:00001044       $pdata$?setSBCS@@YAXPEAU__crt_multibyte_data@@@Z 000000018010d044     libucrt:mbctype.obj
 0004:00001050       $pdata$?setSBUpLow@@YAXPEAU__crt_multibyte_data@@@Z 000000018010d050     libucrt:mbctype.obj
 0004:0000105c       $pdata$?setmbcp_internal@@YAHH_N@Z 000000018010d05c     libucrt:mbctype.obj
 0004:00001068       $pdata$__acrt_initialize_multibyte 000000018010d068     libucrt:mbctype.obj
 0004:00001074       $pdata$__acrt_update_thread_multibyte_data 000000018010d074     libucrt:mbctype.obj
 0004:00001080       $pdata$_setmbcp_nolock     000000018010d080     libucrt:mbctype.obj
 0004:0000108c       $pdata$?x_ismbbtype_l@@YAHPEAU__crt_locale_pointers@@IHH@Z 000000018010d08c     libucrt:ismbbyte.obj
 0004:00001098       $pdata$__acrt_initialize_command_line 000000018010d098     libucrt:argv_data.obj
 0004:000010a4       $pdata$__dcrt_get_narrow_environment_from_os 000000018010d0a4     libucrt:get_environment_from_os.obj
 0004:000010b0       $pdata$_recalloc_base      000000018010d0b0     libucrt:recalloc.obj
 0004:000010bc       $pdata$__acrt_initialize_heap 000000018010d0bc     libucrt:heap_handle.obj
 0004:000010c8       $pdata$?initialize_inherited_file_handles_nolock@@YAXXZ 000000018010d0c8     libucrt:ioinit.obj
 0004:000010d4       $pdata$?initialize_stdio_handles_nolock@@YAXXZ 000000018010d0d4     libucrt:ioinit.obj
 0004:000010e0       $pdata$__acrt_initialize_lowio 000000018010d0e0     libucrt:ioinit.obj
 0004:000010ec       $pdata$__acrt_uninitialize_lowio 000000018010d0ec     libucrt:ioinit.obj
 0004:000010f8       $pdata$__acrt_execute_initializers 000000018010d0f8     libucrt:shared_initialization.obj
 0004:00001104       $pdata$__acrt_execute_uninitializers 000000018010d104     libucrt:shared_initialization.obj
 0004:00001110       $pdata$__acrt_invoke_user_matherr 000000018010d110     libucrt:matherr.obj
 0004:0000111c       $pdata$_mbtowc_l           000000018010d11c     libucrt:mbtowc.obj
 0004:00001128       $pdata$_fileno             000000018010d128     libucrt:fileno.obj
 0004:00001134       $pdata$__pctype_func       000000018010d134     libucrt:ctype.obj
 0004:00001140       $pdata$_isctype_l          000000018010d140     libucrt:isctype.obj
 0004:0000114c       $pdata$__acrt_free_locale  000000018010d14c     libucrt:locale_refcounting.obj
 0004:00001158       $pdata$__acrt_locale_free_lc_time_if_unreferenced 000000018010d158     libucrt:locale_refcounting.obj
 0004:00001164       $pdata$__acrt_release_locale_ref 000000018010d164     libucrt:locale_refcounting.obj
 0004:00001170       $pdata$__acrt_update_thread_locale_data 000000018010d170     libucrt:locale_refcounting.obj
 0004:0000117c       $pdata$_updatetlocinfoEx_nolock 000000018010d17c     libucrt:locale_refcounting.obj
 0004:00001188       $pdata$_fcloseall          000000018010d188     libucrt:closeall.obj
 0004:00001194       $pdata$__acrt_stdio_free_buffer_nolock 000000018010d194     libucrt:_freebuf.obj
 0004:000011a0       $pdata$??$?RV<lambda_b521505b218e5242e90febf6bfebc422>@@AEAV<lambda_6978c1fb23f02e42e1d9e99668cc68aa>@@V<lambda_314360699dd331753a4119843814e9a7>@@@?$__crt_seh_guarded_call@H@@QEAAH$$QEAV<lambda_b521505b218e5242e90febf6bfebc422>@@AEAV<lambda_6978c1fb23f02e42e1d9e99668cc68aa>@@$$QEAV<lambda_314360699dd331753a4119843814e9a7>@@@Z 000000018010d1a0     libucrt:commit.obj
 0004:000011ac       $pdata$_commit             000000018010d1ac     libucrt:commit.obj
 0004:000011b8       $pdata$?write_double_translated_ansi_nolock@@YA?AUwrite_result@?A0x9c548279@@HQEBDI@Z 000000018010d1b8     libucrt:write.obj
 0004:000011c4       $pdata$?write_text_ansi_nolock@@YA?AUwrite_result@?A0x9c548279@@HQEBDI@Z 000000018010d1c4     libucrt:write.obj
 0004:000011d0       $pdata$?write_text_utf16le_nolock@@YA?AUwrite_result@?A0x9c548279@@HQEBDI@Z 000000018010d1d0     libucrt:write.obj
 0004:000011dc       $pdata$?write_text_utf8_nolock@@YA?AUwrite_result@?A0x9c548279@@HQEBDI@Z 000000018010d1dc     libucrt:write.obj
 0004:000011e8       $pdata$_write              000000018010d1e8     libucrt:write.obj
 0004:000011f4       $pdata$_write_nolock       000000018010d1f4     libucrt:write.obj
 0004:00001200       $pdata$_isleadbyte_l       000000018010d200     libucrt:_wctype.obj
 0004:0000120c       $pdata$?__acrt_LCMapStringA_stat@@YAHPEAU__crt_locale_pointers@@PEB_WKPEBDHPEADHHH@Z 000000018010d20c     libucrt:lcmapstringa.obj
 0004:00001218       $pdata$__acrt_LCMapStringA 000000018010d218     libucrt:lcmapstringa.obj
 0004:00001224       $pdata$__acrt_locale_free_monetary 000000018010d224     libucrt:initmon.obj
 0004:00001230       $pdata$__acrt_locale_free_numeric 000000018010d230     libucrt:initnum.obj
 0004:0000123c       $pdata$?free_crt_array_internal@@YAXQEAPEBX_K@Z 000000018010d23c     libucrt:inittime.obj
 0004:00001248       $pdata$__acrt_locale_free_time 000000018010d248     libucrt:inittime.obj
 0004:00001254       $pdata$__acrt_GetStringTypeA 000000018010d254     libucrt:getstringtypea.obj
 0004:00001260       $pdata$?GetTableIndexFromLocaleName@@YAHPEB_W@Z 000000018010d260     libucrt:lcidtoname_downlevel.obj
 0004:0000126c       $pdata$__acrt_DownlevelLocaleNameToLCID 000000018010d26c     libucrt:lcidtoname_downlevel.obj
 0004:00001278       $pdata$strncpy_s           000000018010d278     libucrt:strncpy_s.obj
 0004:00001284       $pdata$strpbrk             000000018010d284     libucrt:strpbrk.obj
 0004:00001290       $pdata$_mbsdec_l           000000018010d290     libucrt:mbsdec.obj
 0004:0000129c       $pdata$?initialize_multibyte@@YAHXZ 000000018010d29c     libucrt:multibyte_initializer.obj
 0004:000012a8       $pdata$_msize              000000018010d2a8     libucrt:msize.obj
 0004:000012b4       $pdata$_realloc_base       000000018010d2b4     libucrt:realloc_base.obj
 0004:000012c0       $pdata$__acrt_lowio_create_handle_array 000000018010d2c0     libucrt:osfinfo.obj
 0004:000012cc       $pdata$__acrt_lowio_destroy_handle_array 000000018010d2cc     libucrt:osfinfo.obj
 0004:000012d8       $pdata$__acrt_lowio_ensure_fh_exists 000000018010d2d8     libucrt:osfinfo.obj
 0004:000012e4       $pdata$_free_osfhnd        000000018010d2e4     libucrt:osfinfo.obj
 0004:000012f0       $pdata$_get_osfhandle      000000018010d2f0     libucrt:osfinfo.obj
 0004:000012fc       $pdata$_isatty             000000018010d2fc     libucrt:isatty.obj
 0004:00001308       $pdata$_fclose_nolock      000000018010d308     libucrt:fclose.obj
 0004:00001314       $pdata$fclose              000000018010d314     libucrt:fclose.obj
 0004:00001320       $pdata$??$common_lseek_nolock@_J@@YA_JH_JH@Z 000000018010d320     libucrt:lseek.obj
 0004:0000132c       $pdata$_putwch_nolock      000000018010d32c     libucrt:putwch.obj
 0004:00001344       $pdata$??$?RV<lambda_bfedae4ebbf01fab1bb6dcc6a9e276e0>@@AEAV<lambda_2fe9b910cf3cbf4a0ab98a02ba45b3ec>@@V<lambda_237c231691f317818eb88cc1d5d642d6>@@@?$__crt_seh_guarded_call@H@@QEAAH$$QEAV<lambda_bfedae4ebbf01fab1bb6dcc6a9e276e0>@@AEAV<lambda_2fe9b910cf3cbf4a0ab98a02ba45b3ec>@@$$QEAV<lambda_237c231691f317818eb88cc1d5d642d6>@@@Z 000000018010d344     libucrt:close.obj
 0004:00001350       $pdata$_close              000000018010d350     libucrt:close.obj
 0004:0000135c       $pdata$_close_nolock       000000018010d35c     libucrt:close.obj
 0004:00001368       $pdata$__dcrt_lowio_initialize_console_output 000000018010d368     libucrt:initcon.obj
 0004:00001374       $pdata$__dcrt_terminate_console_output 000000018010d374     libucrt:initcon.obj
 0004:00001380       $pdata$_call_matherr       000000018010d380     libucrt:libm_error.obj
 0004:0000138c       $pdata$_exception_enabled  000000018010d38c     libucrt:libm_error.obj
 0004:00001398       $pdata$_handle_error       000000018010d398     libucrt:libm_error.obj
 0004:000013a4       $pdata$__acrt_initialize_fma3 000000018010d3a4     libucrt:fma3_available.obj
 0004:000013b0       $pdata$_log10_special      000000018010d3b0     libucrt:log_special.obj
 0004:000013bc       $pdata$_log_special_common 000000018010d3bc     libucrt:log_special.obj
 0004:000013d4       $pdata$_raise_exc          000000018010d3d4     libucrt:fpexcept.obj
 0004:000013e0       $pdata$_raise_exc_ex       000000018010d3e0     libucrt:fpexcept.obj
 0004:000013ec       $pdata$_set_errno_from_matherr 000000018010d3ec     libucrt:fpexcept.obj
 0004:000013f8       $pdata$_clrfp              000000018010d3f8     libucrt:fpctrl.obj
 0004:00001404       $pdata$_ctrlfp             000000018010d404     libucrt:fpctrl.obj
 0004:00001410       $pdata$_set_statfp         000000018010d410     libucrt:fpctrl.obj
 0004:0000141c       $pdata$_statfp             000000018010d41c     libucrt:fpctrl.obj
 0004:00001428       $pdata$?DloadAcquireSectionWriteAccess@@YAXXZ 000000018010d428     DelayImp:delayhlp.obj
 0004:00001434       $pdata$?DloadGetSRWLockFunctionPointers@@YAEXZ 000000018010d434     DelayImp:delayhlp.obj
 0004:00001440       $pdata$?DloadMakePermanentImageCommit@@YAXPEAX_K@Z 000000018010d440     DelayImp:delayhlp.obj
 0004:0000144c       $pdata$?DloadObtainSection@@YAPEAXPEAK0@Z 000000018010d44c     DelayImp:delayhlp.obj
 0004:00001458       $pdata$?DloadProtectSection@@YAXKPEAK@Z 000000018010d458     DelayImp:delayhlp.obj
 0004:00001464       $pdata$?DloadReleaseSectionWriteAccess@@YAXXZ 000000018010d464     DelayImp:delayhlp.obj
 0004:00001470       $pdata$__delayLoadHelper2  000000018010d470     DelayImp:delayhlp.obj
 0004:0000147c       $pdata$_IsNonwritableInCurrentImage 000000018010d47c     LIBCMT:pesect.obj
 0004:00001488       $pdata$__GSHandlerCheck    000000018010d488     LIBCMT:_gshandler_.obj
 0004:00001494       $pdata$__GSHandlerCheckCommon 000000018010d494     LIBCMT:_gshandler_.obj
 0004:000014d0       $pdata$__scrt_is_nonwritable_in_current_image$filt$0 000000018010d4d0     LIBCMT:utility.obj
 0004:000014dc       $pdata$?fin$0@?0??dllmain_crt_process_attach@@YAHQEAUHINSTANCE__@@QEAX@Z@4HA 000000018010d4dc     LIBCMT:dll_dllmain.obj
 0004:000014e8       $pdata$?fin$0@?0??dllmain_crt_process_detach@@YAH_N@Z@4HA 000000018010d4e8     LIBCMT:dll_dllmain.obj
 0004:000014f4       $pdata$?filt$0@?0??dllmain_dispatch@@YAHQEAUHINSTANCE__@@KQEAX@Z@4HA 000000018010d4f4     LIBCMT:dll_dllmain.obj
 0004:00001500       $pdata$_query_new_handler$fin$0 000000018010d500     libucrt:new_handler.obj
 0004:0000150c       $pdata$?filt$0@?0??common_exit@@YAXHW4_crt_exit_cleanup_mode@@W4_crt_exit_return_mode@@@Z@4HA 000000018010d50c     libucrt:exit.obj
 0004:00001518       $pdata$?fin$1@?0??common_exit@@YAXHW4_crt_exit_cleanup_mode@@W4_crt_exit_return_mode@@@Z@4HA 000000018010d518     libucrt:exit.obj
 0004:00001524       $pdata$?fin$0@?0???$?RV<lambda_e24bbb7b643b32fcea6fa61b31d4c984>@@AEAV<lambda_275893d493268fdec8709772e3fcec0e>@@V<lambda_9d71df4d7cf3f480f8d633942495c3b0>@@@?$__crt_seh_guarded_call@H@@QEAAH$$QEAV<lambda_e24bbb7b643b32fcea6fa61b31d4c984>@@AEAV<lambda_275893d493268fdec8709772e3fcec0e>@@$$QEAV<lambda_9d71df4d7cf3f480f8d633942495c3b0>@@@Z@4HA 000000018010d524     libucrt:onexit.obj
 0004:00001530       $pdata$?fin$0@?0???$?RV<lambda_fb3a7dec4e47f37f22dae91bb15c9095>@@AEAV<lambda_698284760c8add0bfb0756c19673e34b>@@V<lambda_dfb8eca1e75fef3034a8fb18dd509707>@@@?$__crt_seh_guarded_call@X@@QEAAX$$QEAV<lambda_fb3a7dec4e47f37f22dae91bb15c9095>@@AEAV<lambda_698284760c8add0bfb0756c19673e34b>@@$$QEAV<lambda_dfb8eca1e75fef3034a8fb18dd509707>@@@Z@4HA 000000018010d530     libucrt:per_thread_data.obj
 0004:00001530       $pdata$?fin$0@?0???$?RV<lambda_b8c45f8f788dd370798f47cfe8ac3a86>@@AEAV<lambda_4e60a939b0d047cfe11ddc22648dfba9>@@V<lambda_332c3edc96d0294ec56c57d38c1cdfd5>@@@?$__crt_seh_guarded_call@H@@QEAAH$$QEAV<lambda_b8c45f8f788dd370798f47cfe8ac3a86>@@AEAV<lambda_4e60a939b0d047cfe11ddc22648dfba9>@@$$QEAV<lambda_332c3edc96d0294ec56c57d38c1cdfd5>@@@Z@4HA 000000018010d530     libucrt:onexit.obj
 0004:00001530       $pdata$?fin$0@?0???$?RV<lambda_46352004c1216016012b18bd6f87e700>@@AEAV<lambda_3bd07e1a1191394380780325891bf33f>@@V<lambda_334532d3f185bcaa59b5be82d7d22bff>@@@?$__crt_seh_guarded_call@X@@QEAAX$$QEAV<lambda_46352004c1216016012b18bd6f87e700>@@AEAV<lambda_3bd07e1a1191394380780325891bf33f>@@$$QEAV<lambda_334532d3f185bcaa59b5be82d7d22bff>@@@Z@4HA 000000018010d530     libucrt:per_thread_data.obj
 0004:00001530       $pdata$?fin$0@?0???$?RV<lambda_5e887d1dcbef67a5eb4283622ba103bf>@@AEAV<lambda_4466841279450cc726390878d4a41900>@@V<lambda_341c25c0346d94847f1f3c463c57e077>@@@?$__crt_seh_guarded_call@X@@QEAAX$$QEAV<lambda_5e887d1dcbef67a5eb4283622ba103bf>@@AEAV<lambda_4466841279450cc726390878d4a41900>@@$$QEAV<lambda_341c25c0346d94847f1f3c463c57e077>@@@Z@4HA 000000018010d530     libucrt:per_thread_data.obj
 0004:00001530       $pdata$?fin$0@?0???$?RV<lambda_c36588078e9f5dfd39652860aa6b3aaf>@@AEAV<lambda_ec61778202f4f5fc7e7711acc23c3bca>@@V<lambda_dc9d2797ccde5d239b4a0efae8ebd7db>@@@?$__crt_seh_guarded_call@P6AXH@Z@@QEAAP6AXH@Z$$QEAV<lambda_c36588078e9f5dfd39652860aa6b3aaf>@@AEAV<lambda_ec61778202f4f5fc7e7711acc23c3bca>@@$$QEAV<lambda_dc9d2797ccde5d239b4a0efae8ebd7db>@@@Z@4HA 000000018010d530     libucrt:signal.obj
 0004:00001530       $pdata$?fin$0@?0???$?RV<lambda_72d1df2b273a38828b1ce30cbf4cdab5>@@AEAV<lambda_876a65b173b8412d3a47c70a915b0cf4>@@V<lambda_41932305e351933ebe8f8be3ed8bb5dc>@@@?$__crt_seh_guarded_call@X@@QEAAX$$QEAV<lambda_72d1df2b273a38828b1ce30cbf4cdab5>@@AEAV<lambda_876a65b173b8412d3a47c70a915b0cf4>@@$$QEAV<lambda_41932305e351933ebe8f8be3ed8bb5dc>@@@Z@4HA 000000018010d530     libucrt:per_thread_data.obj
 0004:00001530       $pdata$?fin$0@?0???$?RV<lambda_99476a1ad63dd22509b5d3e65b0ffc95>@@AEAV<lambda_ad1ced32f4ac17aa236e5ef05d6b3b7c>@@V<lambda_f7424dd8d45958661754dc4f2697e9c3>@@@?$__crt_seh_guarded_call@X@@QEAAX$$QEAV<lambda_99476a1ad63dd22509b5d3e65b0ffc95>@@AEAV<lambda_ad1ced32f4ac17aa236e5ef05d6b3b7c>@@$$QEAV<lambda_f7424dd8d45958661754dc4f2697e9c3>@@@Z@4HA 000000018010d530     libucrt:mbctype.obj
 0004:0000153c       $pdata$common_flush_all$fin$0 000000018010d53c     libucrt:fflush.obj
 0004:00001548       $pdata$common_flush_all$fin$1 000000018010d548     libucrt:fflush.obj
 0004:00001554       $pdata$raise$fin$0         000000018010d554     libucrt:signal.obj
 0004:00001560       $pdata$__acrt_update_thread_locale_data$fin$0 000000018010d560     libucrt:locale_refcounting.obj
 0004:00001560       $pdata$__acrt_uninitialize_locale$fin$0 000000018010d560     libucrt:wsetlocale.obj
 0004:0000156c       $pdata$__acrt_update_thread_multibyte_data$fin$0 000000018010d56c     libucrt:mbctype.obj
 0004:00001578       $pdata$_fcloseall$fin$0    000000018010d578     libucrt:closeall.obj
 0004:00001584       $pdata$?fin$0@?0???$?RV<lambda_bfedae4ebbf01fab1bb6dcc6a9e276e0>@@AEAV<lambda_2fe9b910cf3cbf4a0ab98a02ba45b3ec>@@V<lambda_237c231691f317818eb88cc1d5d642d6>@@@?$__crt_seh_guarded_call@H@@QEAAH$$QEAV<lambda_bfedae4ebbf01fab1bb6dcc6a9e276e0>@@AEAV<lambda_2fe9b910cf3cbf4a0ab98a02ba45b3ec>@@$$QEAV<lambda_237c231691f317818eb88cc1d5d642d6>@@@Z@4HA 000000018010d584     libucrt:close.obj
 0004:00001584       $pdata$?fin$0@?0???$?RV<lambda_b521505b218e5242e90febf6bfebc422>@@AEAV<lambda_6978c1fb23f02e42e1d9e99668cc68aa>@@V<lambda_314360699dd331753a4119843814e9a7>@@@?$__crt_seh_guarded_call@H@@QEAAH$$QEAV<lambda_b521505b218e5242e90febf6bfebc422>@@AEAV<lambda_6978c1fb23f02e42e1d9e99668cc68aa>@@$$QEAV<lambda_314360699dd331753a4119843814e9a7>@@@Z@4HA 000000018010d584     libucrt:commit.obj
 0004:00001590       $pdata$_write$fin$0        000000018010d590     libucrt:write.obj
 0004:0000159c       $pdata$__acrt_lowio_ensure_fh_exists$fin$0 000000018010d59c     libucrt:osfinfo.obj
 0004:0000159c       $pdata$__acrt_initialize_lowio$fin$0 000000018010d59c     libucrt:ioinit.obj
 0004:000015a8       $pdata$fclose$fin$0        000000018010d5a8     libucrt:fclose.obj
 0004:000015b4       $pdata$_ctrlfp$filt$0      000000018010d5b4     libucrt:fpctrl.obj
 0004:000015c0       $pdata$_IsNonwritableInCurrentImage$filt$0 000000018010d5c0     LIBCMT:pesect.obj
 0005:00000000       __guard_fids__             000000018010e000     libucrt:initialization.obj
 0005:00000060       __guard_fids___acrt_initialize_ptd 000000018010e060     libucrt:per_thread_data.obj
 0005:00000064       __guard_fids_??$expand_argument_wildcards@D@@YAHQEAD0AEAV?$argument_list@D@?A0xca0879c4@@@Z 000000018010e064     libucrt:argv_wildcards.obj
 0005:00000068       __guard_fids__             000000018010e068     libucrt:stdio_initializer.obj
 0005:0000006c       __guard_fids__             000000018010e06c     libucrt:stdio_initializer.obj
 0005:00000070       __guard_fids__             000000018010e070     libucrt:locale_initializer.obj
 0005:00000074       __guard_fids__             000000018010e074     libucrt:multibyte_initializer.obj
 0005:00000078       __guard_fids__             000000018010e078     libucrt:console_output_initializer.obj
 0005:0000007c       __guard_fids__             000000018010e07c     libucrt:fma3_initializer.obj
 0005:00000080       __guard_fids_?dllmain_crt_process_attach@@YAHQEAUHINSTANCE__@@QEAX@Z 000000018010e080     LIBCMT:dll_dllmain.obj
 0005:00000088       __guard_fids_?dllmain_dispatch@@YAHQEAUHINSTANCE__@@KQEAX@Z 000000018010e088     LIBCMT:dll_dllmain.obj
 0005:0000008c       __guard_fids__             000000018010e08c     LIBCMT:throw_bad_alloc.obj
 0005:00000094       __guard_fids__             000000018010e094     LIBCMT:throw_bad_alloc.obj
 0005:0000009c       __guard_fids__             000000018010e09c     LIBCMT:throw_bad_alloc.obj
 0005:000000a4       __guard_fids__             000000018010e0a4     LIBCMT:std_type_info_static.obj
 0005:000000a8       __guard_fids__             000000018010e0a8     LIBCMT:guard_support.obj
 0005:000000ac       __guard_fids___vcrt_initialize_ptd 000000018010e0ac     libvcruntime:per_thread_data.obj
 0006:00000060       $R000000                   000000018010f060     * linker generated manifest res *

 Exports

  ordinal    name

        1    _register_libiconv_
